

Microchip MPLAB XC8 Assembler V2.32 build 20210201212658 
                                                                                               Mon Dec 05 18:10:23 2022

Microchip MPLAB XC8 C Compiler v2.32 (Free license) build 20210201212658 Og1 
     1                           	processor	18F25K50
     2                           	fnconf	rparam,??,?,0
     3                           	pagewidth 120
     4                           	opt	flic
     5                           	psect	smallconst,global,reloc=2,class=SMALLCONST,delta=1,noexec
     6                           	psect	cinit,global,reloc=2,class=CODE,delta=1
     7                           	psect	bssCOMRAM,global,class=COMRAM,space=1,delta=1,lowdata,noexec
     8                           	psect	bssBANK0,global,class=BANK0,space=1,delta=1,lowdata,noexec
     9                           	psect	cstackCOMRAM,global,class=COMRAM,space=1,delta=1,lowdata,noexec
    10                           	psect	text0,global,reloc=2,class=CODE,delta=1
    11                           	psect	text1,global,reloc=2,class=CODE,delta=1
    12                           	psect	text2,global,reloc=2,class=CODE,delta=1
    13                           	psect	text3,global,reloc=2,class=CODE,delta=1
    14                           	psect	text4,global,reloc=2,class=CODE,delta=1
    15                           	psect	text5,global,reloc=2,class=CODE,delta=1
    16                           	psect	text6,global,reloc=2,class=CODE,delta=1
    17                           	psect	text7,global,reloc=2,class=CODE,delta=1
    18                           	psect	text8,global,reloc=2,class=CODE,delta=1
    19                           	psect	text9,global,reloc=2,class=CODE,delta=1
    20                           	psect	text10,global,reloc=2,class=CODE,delta=1
    21                           	psect	text11,global,reloc=2,class=CODE,delta=1
    22                           	psect	text12,global,reloc=2,class=CODE,delta=1
    23                           	psect	text13,global,reloc=2,class=CODE,delta=1
    24                           	psect	text14,global,reloc=2,class=CODE,delta=1
    25                           	psect	intsave_regs,global,class=BIGRAM,space=1,delta=1,noexec
    26                           	psect	rparam,global,class=COMRAM,space=1,delta=1,noexec
    27                           	psect	idloc,global,abs,ovrld,class=IDLOC,space=5,delta=1,noexec
    28                           	psect	config,global,abs,ovrld,class=CONFIG,space=4,delta=1,noexec
    29  0000                     
    30                           ; Version 2.40
    31                           ; Generated 17/11/2021 GMT
    32                           ; 
    33                           ; Copyright © 2021, Microchip Technology Inc. and its subsidiaries ("Microchip")
    34                           ; All rights reserved.
    35                           ; 
    36                           ; This software is developed by Microchip Technology Inc. and its subsidiaries ("Microch
      +                          ip").
    37                           ; 
    38                           ; Redistribution and use in source and binary forms, with or without modification, are
    39                           ; permitted provided that the following conditions are met:
    40                           ; 
    41                           ;     1. Redistributions of source code must retain the above copyright notice, this lis
      +                          t of
    42                           ;        conditions and the following disclaimer.
    43                           ; 
    44                           ;     2. Redistributions in binary form must reproduce the above copyright notice, this 
      +                          list
    45                           ;        of conditions and the following disclaimer in the documentation and/or other
    46                           ;        materials provided with the distribution. Publication is not required when
    47                           ;        this file is used in an embedded application.
    48                           ; 
    49                           ;     3. Microchip's name may not be used to endorse or promote products derived from th
      +                          is
    50                           ;        software without specific prior written permission.
    51                           ; 
    52                           ; THIS SOFTWARE IS PROVIDED BY MICROCHIP "AS IS" AND ANY EXPRESS OR IMPLIED WARRANTIES,
    53                           ; INCLUDING, BUT NOT LIMITED TO, THE IMPLIED WARRANTIES OF MERCHANTABILITY AND FITNESS F
      +                          OR
    54                           ; PURPOSE ARE DISCLAIMED.  IN NO EVENT SHALL MICROCHIP BE LIABLE FOR ANY DIRECT, INDIREC
      +                          T,
    55                           ; INCIDENTAL, SPECIAL, EXEMPLARY, OR CONSEQUENTIAL DAMAGES (INCLUDING BUT NOT LIMITED TO
    56                           ; PROCUREMENT OF SUBSTITUTE GOODS OR SERVICES; LOSS OF USE, DATA OR PROFITS; OR BUSINESS
    57                           ; INTERRUPTION) HOWSOEVER CAUSED AND ON ANY THEORY OF LIABILITY, WHETHER IN CONTRACT, ST
      +                          RICT
    58                           ; LIABILITY, OR TORT (INCLUDING NEGLIGENCE OR OTHERWISE) ARISING IN ANY WAY OUT OF THE U
      +                          SE OF
    59                           ; THIS SOFTWARE, EVEN IF ADVISED OF THE POSSIBILITY OF SUCH DAMAGE.
    60                           ; 
    61                           ; 
    62                           ; Code-generator required, PIC18F25K50 Definitions
    63                           ; 
    64                           ; SFR Addresses
    65  0000                     
    66 ;; Function _EUSART1_DefaultFramingErrorHandler is unused but had its address taken
    67  0000                     
    68 ;; Function _EUSART1_DefaultOverrunErrorHandler is unused but had its address taken
    69  0000                     
    70 ;; Function _EUSART1_DefaultErrorHandler is unused but had its address taken
    71  0000                     
    72                           	psect	smallconst
    73  000800                     __psmallconst:
    74                           	callstack 0
    75  000800  00                 	db	0
    76  000801                     _direccion_rx:
    77                           	callstack 0
    78  000801  11                 	db	17
    79  000802  11                 	db	17
    80  000803  11                 	db	17
    81  000804  11                 	db	17
    82  000805  11                 	db	17
    83  000806                     __end_of_direccion_rx:
    84                           	callstack 0
    85  000806                     _direccion_tx:
    86                           	callstack 0
    87  000806  11                 	db	17
    88  000807  11                 	db	17
    89  000808  11                 	db	17
    90  000809  11                 	db	17
    91  00080A  11                 	db	17
    92  00080B                     __end_of_direccion_tx:
    93                           	callstack 0
    94  0000                     _ANSELA	set	3931
    95  0000                     _ANSELB	set	3932
    96  0000                     _ANSELC	set	3933
    97  0000                     _PORTAbits	set	3968
    98  0000                     _TRISAbits	set	3986
    99  0000                     _PORTBbits	set	3969
   100  0000                     _LATCbits	set	3979
   101  0000                     _LATBbits	set	3978
   102  0000                     _TRISBbits	set	3987
   103  0000                     _TRISCbits	set	3988
   104  0000                     _ADCON0bits	set	4034
   105  0000                     _ADCON0	set	4034
   106  0000                     _ADRESH	set	4036
   107  0000                     _ADRESL	set	4035
   108  0000                     _ADCON2	set	4032
   109  0000                     _ADCON1	set	4033
   110  0000                     _CCPR2H	set	3985
   111  0000                     _CCPR2L	set	3984
   112  0000                     _CCP2CON	set	3991
   113  0000                     _INTCONbits	set	4082
   114  0000                     _INTCON2bits	set	4081
   115  0000                     _WPUB	set	3973
   116  0000                     _TRISC	set	3988
   117  0000                     _TRISB	set	3987
   118  0000                     _TRISA	set	3986
   119  0000                     _LATC	set	3979
   120  0000                     _LATB	set	3978
   121  0000                     _LATA	set	3977
   122  0000                     _ACTCON	set	4021
   123  0000                     _OSCTUNE	set	3995
   124  0000                     _OSCCON2	set	4050
   125  0000                     _OSCCON	set	4051
   126  0000                     _TXREG1	set	4013
   127  0000                     _RCREG1	set	4014
   128  0000                     _RCSTA1bits	set	4011
   129  0000                     _TXSTA1bits	set	4012
   130  0000                     _PIR1bits	set	3998
   131  0000                     _SPBRGH1	set	4016
   132  0000                     _SPBRG1	set	4015
   133  0000                     _TXSTA1	set	4012
   134  0000                     _RCSTA1	set	4011
   135  0000                     _BAUDCON1	set	4024
   136  0000                     _LATA5	set	31821
   137  0000                     _LATB0	set	31824
   138  0000                     _PLLRDY	set	32407
   139  00080B                     STR_1:
   140  00080B  63                 	db	99	;'c'
   141  00080C  69                 	db	105	;'i'
   142  00080D  65                 	db	101	;'e'
   143  00080E  72                 	db	114	;'r'
   144  00080F  3D                 	db	61	;'='
   145  000810  00                 	db	0
   146  000811                     STR_5:
   147  000811  61                 	db	97	;'a'
   148  000812  70                 	db	112	;'p'
   149  000813  65                 	db	101	;'e'
   150  000814  72                 	db	114	;'r'
   151  000815  3D                 	db	61	;'='
   152  000816  00                 	db	0
   153  000817                     STR_3:
   154  000817  6F                 	db	111	;'o'
   155  000818  6E                 	db	110	;'n'
   156  000819  00                 	db	0
   157  00081A  00                 	db	0	; dummy byte at the end
   158  0000                     
   159                           ; #config settings
   160                           
   161                           	psect	cinit
   162  000A2E                     __pcinit:
   163                           	callstack 0
   164  000A2E                     start_initialization:
   165                           	callstack 0
   166  000A2E                     __initialization:
   167                           	callstack 0
   168                           
   169                           ; Clear objects allocated to BANK0 (30 bytes)
   170  000A2E  EE00  F060         	lfsr	0,__pbssBANK0
   171  000A32  0E1E               	movlw	30
   172  000A34                     clear_0:
   173  000A34  6AEE               	clrf	postinc0,c
   174  000A36  06E8               	decf	wreg,f,c
   175  000A38  E1FD               	bnz	clear_0
   176                           
   177                           ; Clear objects allocated to COMRAM (63 bytes)
   178  000A3A  EE00  F001         	lfsr	0,__pbssCOMRAM
   179  000A3E  0E3F               	movlw	63
   180  000A40                     clear_1:
   181  000A40  6AEE               	clrf	postinc0,c
   182  000A42  06E8               	decf	wreg,f,c
   183  000A44  E1FD               	bnz	clear_1
   184  000A46                     end_of_initialization:
   185                           	callstack 0
   186  000A46                     __end_of__initialization:
   187                           	callstack 0
   188  000A46  0E00               	movlw	low (__Lmediumconst shr (0+16))
   189  000A48  6EF8               	movwf	tblptru,c
   190  000A4A  0100               	movlb	0
   191  000A4C  EF0E  F004         	goto	_main	;jump to C main() function
   192                           
   193                           	psect	bssCOMRAM
   194  000001                     __pbssCOMRAM:
   195                           	callstack 0
   196  000001                     _texto:
   197                           	callstack 0
   198  000001                     	ds	20
   199  000015                     _ADC_InterruptHandler:
   200                           	callstack 0
   201  000015                     	ds	2
   202  000017                     _EUSART1_ErrorHandler:
   203                           	callstack 0
   204  000017                     	ds	2
   205  000019                     _EUSART1_OverrunErrorHandler:
   206                           	callstack 0
   207  000019                     	ds	2
   208  00001B                     _EUSART1_FramingErrorHandler:
   209                           	callstack 0
   210  00001B                     	ds	2
   211  00001D                     _flag_rx:
   212                           	callstack 0
   213  00001D                     	ds	1
   214  00001E                     _datorx:
   215                           	callstack 0
   216  00001E                     	ds	1
   217  00001F                     _puntero:
   218                           	callstack 0
   219  00001F                     	ds	1
   220  000020                     _dato_serial:
   221                           	callstack 0
   222  000020                     	ds	1
   223  000021                     _eusart1RxLastError:
   224                           	callstack 0
   225  000021                     	ds	1
   226  000022                     _trama:
   227                           	callstack 0
   228  000022                     	ds	30
   229                           
   230                           	psect	bssBANK0
   231  000060                     __pbssBANK0:
   232                           	callstack 0
   233  000060                     _procesa:
   234                           	callstack 0
   235  000060                     	ds	30
   236                           
   237                           	psect	cstackCOMRAM
   238  000040                     __pcstackCOMRAM:
   239                           	callstack 0
   240  000040                     spi_s_write@dato_:
   241                           	callstack 0
   242                           
   243                           ; 1 bytes @ 0x0
   244  000040                     	ds	1
   245  000041                     spi_s_write@cont_s:
   246                           	callstack 0
   247                           
   248                           ; 1 bytes @ 0x1
   249  000041                     	ds	1
   250  000042                     nrf2401_write@valor:
   251                           	callstack 0
   252  000042                     nrf2401_comando@comando:
   253                           	callstack 0
   254  000042                     nrf2401_direccion_TX_RX@direccion_:
   255                           	callstack 0
   256                           
   257                           ; 2 bytes @ 0x2
   258  000042                     	ds	1
   259  000043                     nrf2401_write@reg:
   260                           	callstack 0
   261                           
   262                           ; 1 bytes @ 0x3
   263  000043                     	ds	1
   264  000044                     nrf2401_direccion_TX_RX@registro:
   265                           	callstack 0
   266  000044                     nrf2401_envia@dato_tx:
   267                           	callstack 0
   268                           
   269                           ; 1 bytes @ 0x4
   270  000044                     	ds	1
   271  000045                     ??_nrf2401_direccion_TX_RX:
   272                           
   273                           ; 1 bytes @ 0x5
   274  000045                     	ds	2
   275  000047                     nrf2401_direccion_TX_RX@cont_s:
   276                           	callstack 0
   277                           
   278                           ; 1 bytes @ 0x7
   279  000047                     	ds	1
   280  000048                     nrF2401_init_TX@canal:
   281                           	callstack 0
   282                           
   283                           ; 1 bytes @ 0x8
   284  000048                     	ds	1
   285  000049                     ??_main:
   286                           
   287                           ; 1 bytes @ 0x9
   288  000049                     	ds	2
   289                           
   290 ;;
   291 ;;Main: autosize = 0, tempsize = 2, incstack = 0, save=0
   292 ;;
   293 ;; *************** function _main *****************
   294 ;; Defined at:
   295 ;;		line 144 in file "main.c"
   296 ;; Parameters:    Size  Location     Type
   297 ;;		None
   298 ;; Auto vars:     Size  Location     Type
   299 ;;		None
   300 ;; Return value:  Size  Location     Type
   301 ;;                  1    wreg      void 
   302 ;; Registers used:
   303 ;;		wreg, status,2, status,0, tblptrl, tblptrh, tblptru, cstack
   304 ;; Tracked objects:
   305 ;;		On entry : 0/0
   306 ;;		On exit  : 0/0
   307 ;;		Unchanged: 0/0
   308 ;; Data sizes:     COMRAM   BANK0   BANK1   BANK2   BANK3   BANK4   BANK5   BANK6   BANK7
   309 ;;      Params:         0       0       0       0       0       0       0       0       0
   310 ;;      Locals:         0       0       0       0       0       0       0       0       0
   311 ;;      Temps:          2       0       0       0       0       0       0       0       0
   312 ;;      Totals:         2       0       0       0       0       0       0       0       0
   313 ;;Total ram usage:        2 bytes
   314 ;; Hardware stack levels required when called: 4
   315 ;; This function calls:
   316 ;;		_SYSTEM_Initialize
   317 ;;		_nrF2401_init_TX
   318 ;;		_nrf2401_envia
   319 ;;		_spi_s_init
   320 ;; This function is called by:
   321 ;;		Startup code after reset
   322 ;; This function uses a non-reentrant model
   323 ;;
   324                           
   325                           	psect	text0
   326  00081C                     __ptext0:
   327                           	callstack 0
   328  00081C                     _main:
   329                           	callstack 27
   330  00081C                     
   331                           ;main.c: 147:     SYSTEM_Initialize();
   332  00081C  EC7B  F005         	call	_SYSTEM_Initialize	;wreg free
   333  000820                     
   334                           ;main.c: 166:     ANSELA = 0b00000111;
   335  000820  0E07               	movlw	7
   336  000822  010F               	movlb	15	; () banked
   337  000824  6F5B               	movwf	91,b	;volatile
   338  000826                     
   339                           ; BSR set to: 15
   340                           ;main.c: 167:     ANSELB = 0b00000000;
   341  000826  0E00               	movlw	0
   342  000828  6F5C               	movwf	92,b	;volatile
   343  00082A                     
   344                           ; BSR set to: 15
   345                           ;main.c: 168:     ANSELC = 0x00;
   346  00082A  0E00               	movlw	0
   347  00082C  6F5D               	movwf	93,b	;volatile
   348  00082E                     
   349                           ; BSR set to: 15
   350                           ;main.c: 175:     TRISAbits.RA3 = 1;
   351  00082E  8692               	bsf	146,3,c	;volatile
   352  000830                     
   353                           ; BSR set to: 15
   354                           ;main.c: 177:     LATA5 = 1;
   355  000830  8A89               	bsf	3977,5,c	;volatile
   356  000832                     
   357                           ; BSR set to: 15
   358                           ;main.c: 178:     _delay((unsigned long)((500)*(48000000/4000.0)));
   359  000832  0E1F               	movlw	31
   360  000834  6E4A               	movwf	(??_main+1)^0,c
   361  000836  0E71               	movlw	113
   362  000838  6E49               	movwf	??_main^0,c
   363  00083A  0E1E               	movlw	30
   364  00083C                     u327:
   365  00083C  2EE8               	decfsz	wreg,f,c
   366  00083E  D7FE               	bra	u327
   367  000840  2E49               	decfsz	??_main^0,f,c
   368  000842  D7FC               	bra	u327
   369  000844  2E4A               	decfsz	(??_main+1)^0,f,c
   370  000846  D7FA               	bra	u327
   371  000848  D000               	nop2	
   372  00084A                     
   373                           ;main.c: 179:     LATA5 = 0;
   374  00084A  9A89               	bcf	3977,5,c	;volatile
   375  00084C                     
   376                           ;main.c: 182:     spi_s_init();
   377  00084C  EC52  F005         	call	_spi_s_init	;wreg free
   378  000850                     
   379                           ;main.c: 183:     nrF2401_init_TX(17);
   380  000850  0E11               	movlw	17
   381  000852  EC6A  F004         	call	_nrF2401_init_TX
   382  000856                     l1524:
   383                           
   384                           ;main.c: 188:     {;main.c: 192:         if(PORTAbits.RA3 == 1)
   385  000856  A680               	btfss	128,3,c	;volatile
   386  000858  EF30  F004         	goto	u281
   387  00085C  EF32  F004         	goto	u280
   388  000860                     u281:
   389  000860  EF47  F004         	goto	l1530
   390  000864                     u280:
   391  000864                     
   392                           ;main.c: 193:         {;main.c: 196:             LATA5 = ~LATA5;
   393  000864  AA89               	btfss	3977,5,c	;volatile
   394  000866  EF37  F004         	goto	u291
   395  00086A  EF3A  F004         	goto	u290
   396  00086E                     u291:
   397  00086E  8A89               	bsf	3977,5,c	;volatile
   398  000870  EF3B  F004         	goto	u305
   399  000874                     u290:
   400  000874  9A89               	bcf	3977,5,c	;volatile
   401  000876                     u305:
   402  000876                     
   403                           ;main.c: 197:             _delay((unsigned long)((300)*(48000000/4000.0)));
   404  000876  0E13               	movlw	19
   405  000878  6E4A               	movwf	(??_main+1)^0,c
   406  00087A  0E44               	movlw	68
   407  00087C  6E49               	movwf	??_main^0,c
   408  00087E  0E44               	movlw	68
   409  000880                     u337:
   410  000880  2EE8               	decfsz	wreg,f,c
   411  000882  D7FE               	bra	u337
   412  000884  2E49               	decfsz	??_main^0,f,c
   413  000886  D7FC               	bra	u337
   414  000888  2E4A               	decfsz	(??_main+1)^0,f,c
   415  00088A  D7FA               	bra	u337
   416  00088C  D000               	nop2	
   417  00088E                     l1530:
   418                           
   419                           ;main.c: 200:         if(LATA5 == 1)
   420  00088E  AA89               	btfss	3977,5,c	;volatile
   421  000890  EF4C  F004         	goto	u311
   422  000894  EF4E  F004         	goto	u310
   423  000898                     u311:
   424  000898  EF55  F004         	goto	l1536
   425  00089C                     u310:
   426  00089C                     
   427                           ;main.c: 201:         {;main.c: 202:             dato_serial = 1;
   428  00089C  0E01               	movlw	1
   429  00089E  6E20               	movwf	_dato_serial^0,c
   430  0008A0                     
   431                           ;main.c: 203:             nrf2401_envia(dato_serial);
   432  0008A0  0E01               	movlw	1
   433  0008A2  ECE5  F004         	call	_nrf2401_envia
   434                           
   435                           ;main.c: 204:         }
   436  0008A6  EF5A  F004         	goto	l1540
   437  0008AA                     l1536:
   438                           
   439                           ;main.c: 206:         {;main.c: 207:             dato_serial = 0;
   440  0008AA  0E00               	movlw	0
   441  0008AC  6E20               	movwf	_dato_serial^0,c
   442  0008AE                     
   443                           ;main.c: 208:             nrf2401_envia(dato_serial);
   444  0008AE  0E00               	movlw	0
   445  0008B0  ECE5  F004         	call	_nrf2401_envia
   446  0008B4                     l1540:
   447                           
   448                           ;main.c: 211:         _delay((unsigned long)((100)*(48000000/4000.0)));
   449  0008B4  0E07               	movlw	7
   450  0008B6  6E4A               	movwf	(??_main+1)^0,c
   451  0008B8  0E17               	movlw	23
   452  0008BA  6E49               	movwf	??_main^0,c
   453  0008BC  0E6A               	movlw	106
   454  0008BE                     u347:
   455  0008BE  2EE8               	decfsz	wreg,f,c
   456  0008C0  D7FE               	bra	u347
   457  0008C2  2E49               	decfsz	??_main^0,f,c
   458  0008C4  D7FC               	bra	u347
   459  0008C6  2E4A               	decfsz	(??_main+1)^0,f,c
   460  0008C8  D7FA               	bra	u347
   461  0008CA  D000               	nop2	
   462  0008CC  EF2B  F004         	goto	l1524
   463  0008D0  EF00  F000         	goto	start
   464  0008D4                     __end_of_main:
   465                           	callstack 0
   466                           
   467 ;; *************** function _spi_s_init *****************
   468 ;; Defined at:
   469 ;;		line 23 in file "./Librerias/nRF24L01_2.h"
   470 ;; Parameters:    Size  Location     Type
   471 ;;		None
   472 ;; Auto vars:     Size  Location     Type
   473 ;;		None
   474 ;; Return value:  Size  Location     Type
   475 ;;                  1    wreg      void 
   476 ;; Registers used:
   477 ;;		None
   478 ;; Tracked objects:
   479 ;;		On entry : 0/0
   480 ;;		On exit  : 0/0
   481 ;;		Unchanged: 0/0
   482 ;; Data sizes:     COMRAM   BANK0   BANK1   BANK2   BANK3   BANK4   BANK5   BANK6   BANK7
   483 ;;      Params:         0       0       0       0       0       0       0       0       0
   484 ;;      Locals:         0       0       0       0       0       0       0       0       0
   485 ;;      Temps:          0       0       0       0       0       0       0       0       0
   486 ;;      Totals:         0       0       0       0       0       0       0       0       0
   487 ;;Total ram usage:        0 bytes
   488 ;; Hardware stack levels used: 1
   489 ;; This function calls:
   490 ;;		Nothing
   491 ;; This function is called by:
   492 ;;		_main
   493 ;; This function uses a non-reentrant model
   494 ;;
   495                           
   496                           	psect	text1
   497  000AA4                     __ptext1:
   498                           	callstack 0
   499  000AA4                     _spi_s_init:
   500                           	callstack 30
   501  000AA4                     
   502                           ;./Librerias/nRF24L01_2.h: 26:     TRISCbits.TRISC1 = 0;
   503  000AA4  9294               	bcf	148,1,c	;volatile
   504                           
   505                           ;./Librerias/nRF24L01_2.h: 27:     TRISBbits.TRISB2 = 0;
   506  000AA6  9493               	bcf	147,2,c	;volatile
   507                           
   508                           ;./Librerias/nRF24L01_2.h: 28:     TRISCbits.TRISC2 = 0;
   509  000AA8  9494               	bcf	148,2,c	;volatile
   510                           
   511                           ;./Librerias/nRF24L01_2.h: 29:     TRISBbits.TRISB3 = 1;
   512  000AAA  8693               	bsf	147,3,c	;volatile
   513                           
   514                           ;./Librerias/nRF24L01_2.h: 30:     TRISBbits.TRISB1 = 0;
   515  000AAC  9293               	bcf	147,1,c	;volatile
   516                           
   517                           ;./Librerias/nRF24L01_2.h: 31:     TRISCbits.TRISC0 = 1;
   518  000AAE  8094               	bsf	148,0,c	;volatile
   519                           
   520                           ;./Librerias/nRF24L01_2.h: 33:     LATBbits.LATB2 = 0;
   521  000AB0  948A               	bcf	138,2,c	;volatile
   522                           
   523                           ;./Librerias/nRF24L01_2.h: 34:     LATCbits.LATC2 = 0;
   524  000AB2  948B               	bcf	139,2,c	;volatile
   525                           
   526                           ;./Librerias/nRF24L01_2.h: 35:     LATCbits.LATC1 = 0;
   527  000AB4  928B               	bcf	139,1,c	;volatile
   528                           
   529                           ;./Librerias/nRF24L01_2.h: 36:     LATBbits.LATB1 = 0;
   530  000AB6  928A               	bcf	138,1,c	;volatile
   531  000AB8  0012               	return		;funcret
   532  000ABA                     __end_of_spi_s_init:
   533                           	callstack 0
   534                           
   535 ;; *************** function _nrf2401_envia *****************
   536 ;; Defined at:
   537 ;;		line 151 in file "./Librerias/nRF24L01_2.h"
   538 ;; Parameters:    Size  Location     Type
   539 ;;  dato_tx         1    wreg     unsigned char 
   540 ;; Auto vars:     Size  Location     Type
   541 ;;  dato_tx         1    4[COMRAM] unsigned char 
   542 ;;  cont_           1    0        unsigned char 
   543 ;; Return value:  Size  Location     Type
   544 ;;                  1    wreg      void 
   545 ;; Registers used:
   546 ;;		wreg, status,2, status,0, cstack
   547 ;; Tracked objects:
   548 ;;		On entry : 0/0
   549 ;;		On exit  : 0/0
   550 ;;		Unchanged: 0/0
   551 ;; Data sizes:     COMRAM   BANK0   BANK1   BANK2   BANK3   BANK4   BANK5   BANK6   BANK7
   552 ;;      Params:         0       0       0       0       0       0       0       0       0
   553 ;;      Locals:         1       0       0       0       0       0       0       0       0
   554 ;;      Temps:          0       0       0       0       0       0       0       0       0
   555 ;;      Totals:         1       0       0       0       0       0       0       0       0
   556 ;;Total ram usage:        1 bytes
   557 ;; Hardware stack levels used: 1
   558 ;; Hardware stack levels required when called: 3
   559 ;; This function calls:
   560 ;;		_flush_TX
   561 ;;		_nrf2401_write
   562 ;;		_spi_s_write
   563 ;; This function is called by:
   564 ;;		_main
   565 ;;		_nrf2401_envia_Text
   566 ;; This function uses a non-reentrant model
   567 ;;
   568                           
   569                           	psect	text2
   570  0009CA                     __ptext2:
   571                           	callstack 0
   572  0009CA                     _nrf2401_envia:
   573                           	callstack 27
   574                           
   575                           ;incstack = 0
   576                           ;nrf2401_envia@dato_tx stored from wreg
   577  0009CA  6E44               	movwf	nrf2401_envia@dato_tx^0,c
   578  0009CC                     
   579                           ;./Librerias/nRF24L01_2.h: 155:     flush_TX();
   580  0009CC  EC72  F005         	call	_flush_TX	;wreg free
   581  0009D0                     
   582                           ;./Librerias/nRF24L01_2.h: 156:     nrf2401_write(0x00, 0x02 +0x04 + 0x08);
   583  0009D0  0E0E               	movlw	14
   584  0009D2  6E42               	movwf	nrf2401_write@valor^0,c
   585  0009D4  0E00               	movlw	0
   586  0009D6  EC38  F005         	call	_nrf2401_write
   587  0009DA                     
   588                           ;./Librerias/nRF24L01_2.h: 159:     LATCbits.LATC2 = 0;
   589  0009DA  948B               	bcf	139,2,c	;volatile
   590  0009DC                     
   591                           ;./Librerias/nRF24L01_2.h: 160:     spi_s_write(0xA0);
   592  0009DC  0EA0               	movlw	160
   593  0009DE  EC9E  F004         	call	_spi_s_write
   594  0009E2                     
   595                           ;./Librerias/nRF24L01_2.h: 161:     spi_s_write(dato_tx);
   596  0009E2  5044               	movf	nrf2401_envia@dato_tx^0,w,c
   597  0009E4  EC9E  F004         	call	_spi_s_write
   598  0009E8                     
   599                           ;./Librerias/nRF24L01_2.h: 162:     LATCbits.LATC2 = 1;
   600  0009E8  848B               	bsf	139,2,c	;volatile
   601  0009EA                     
   602                           ;./Librerias/nRF24L01_2.h: 163:     LATBbits.LATB1 = 1;
   603  0009EA  828A               	bsf	138,1,c	;volatile
   604  0009EC                     
   605                           ;./Librerias/nRF24L01_2.h: 164:     _delay((unsigned long)((15)*(48000000/4000000.0)));
   606  0009EC  0E3C               	movlw	60
   607  0009EE                     u357:
   608  0009EE  2EE8               	decfsz	wreg,f,c
   609  0009F0  D7FE               	bra	u357
   610  0009F2                     
   611                           ;./Librerias/nRF24L01_2.h: 165:     LATBbits.LATB1 = 0;
   612  0009F2  928A               	bcf	138,1,c	;volatile
   613  0009F4                     
   614                           ;./Librerias/nRF24L01_2.h: 166:     nrf2401_write(0x00, 0x01 + 0x02 +0x04 + 0x08);
   615  0009F4  0E0F               	movlw	15
   616  0009F6  6E42               	movwf	nrf2401_write@valor^0,c
   617  0009F8  0E00               	movlw	0
   618  0009FA  EC38  F005         	call	_nrf2401_write
   619  0009FE  0012               	return		;funcret
   620  000A00                     __end_of_nrf2401_envia:
   621                           	callstack 0
   622                           
   623 ;; *************** function _flush_TX *****************
   624 ;; Defined at:
   625 ;;		line 135 in file "./Librerias/nRF24L01_2.h"
   626 ;; Parameters:    Size  Location     Type
   627 ;;		None
   628 ;; Auto vars:     Size  Location     Type
   629 ;;		None
   630 ;; Return value:  Size  Location     Type
   631 ;;                  1    wreg      void 
   632 ;; Registers used:
   633 ;;		wreg, status,2, status,0, cstack
   634 ;; Tracked objects:
   635 ;;		On entry : 0/0
   636 ;;		On exit  : 0/0
   637 ;;		Unchanged: 0/0
   638 ;; Data sizes:     COMRAM   BANK0   BANK1   BANK2   BANK3   BANK4   BANK5   BANK6   BANK7
   639 ;;      Params:         0       0       0       0       0       0       0       0       0
   640 ;;      Locals:         0       0       0       0       0       0       0       0       0
   641 ;;      Temps:          0       0       0       0       0       0       0       0       0
   642 ;;      Totals:         0       0       0       0       0       0       0       0       0
   643 ;;Total ram usage:        0 bytes
   644 ;; Hardware stack levels used: 1
   645 ;; Hardware stack levels required when called: 2
   646 ;; This function calls:
   647 ;;		_nrf2401_comando
   648 ;;		_nrf2401_write
   649 ;; This function is called by:
   650 ;;		_nrf2401_envia
   651 ;;		_nrf2401_envia_Text
   652 ;; This function uses a non-reentrant model
   653 ;;
   654                           
   655                           	psect	text3
   656  000AE4                     __ptext3:
   657                           	callstack 0
   658  000AE4                     _flush_TX:
   659                           	callstack 27
   660  000AE4                     
   661                           ;./Librerias/nRF24L01_2.h: 137:     nrf2401_write(0x07, 0x70);
   662  000AE4  0E70               	movlw	112
   663  000AE6  6E42               	movwf	nrf2401_write@valor^0,c
   664  000AE8  0E07               	movlw	7
   665  000AEA  EC38  F005         	call	_nrf2401_write
   666                           
   667                           ;./Librerias/nRF24L01_2.h: 138:     nrf2401_comando(0xE2);
   668  000AEE  0EE2               	movlw	226
   669  000AF0  EC68  F005         	call	_nrf2401_comando
   670  000AF4  0012               	return		;funcret
   671  000AF6                     __end_of_flush_TX:
   672                           	callstack 0
   673                           
   674 ;; *************** function _nrF2401_init_TX *****************
   675 ;; Defined at:
   676 ;;		line 201 in file "./Librerias/nRF24L01_2.h"
   677 ;; Parameters:    Size  Location     Type
   678 ;;  canal           1    wreg     unsigned char 
   679 ;; Auto vars:     Size  Location     Type
   680 ;;  canal           1    8[COMRAM] unsigned char 
   681 ;; Return value:  Size  Location     Type
   682 ;;                  1    wreg      void 
   683 ;; Registers used:
   684 ;;		wreg, status,2, status,0, tblptrl, tblptrh, tblptru, cstack
   685 ;; Tracked objects:
   686 ;;		On entry : 0/0
   687 ;;		On exit  : 0/0
   688 ;;		Unchanged: 0/0
   689 ;; Data sizes:     COMRAM   BANK0   BANK1   BANK2   BANK3   BANK4   BANK5   BANK6   BANK7
   690 ;;      Params:         0       0       0       0       0       0       0       0       0
   691 ;;      Locals:         1       0       0       0       0       0       0       0       0
   692 ;;      Temps:          0       0       0       0       0       0       0       0       0
   693 ;;      Totals:         1       0       0       0       0       0       0       0       0
   694 ;;Total ram usage:        1 bytes
   695 ;; Hardware stack levels used: 1
   696 ;; Hardware stack levels required when called: 3
   697 ;; This function calls:
   698 ;;		_flush_TX_RX
   699 ;;		_nrf2401_direccion_TX_RX
   700 ;;		_nrf2401_write
   701 ;; This function is called by:
   702 ;;		_main
   703 ;; This function uses a non-reentrant model
   704 ;;
   705                           
   706                           	psect	text4
   707  0008D4                     __ptext4:
   708                           	callstack 0
   709  0008D4                     _nrF2401_init_TX:
   710                           	callstack 27
   711                           
   712                           ;incstack = 0
   713                           ;nrF2401_init_TX@canal stored from wreg
   714  0008D4  6E48               	movwf	nrF2401_init_TX@canal^0,c
   715  0008D6                     
   716                           ;./Librerias/nRF24L01_2.h: 201: void nrF2401_init_TX(unsigned char canal);./Librerias/nR
      +                          F24L01_2.h: 202: {;./Librerias/nRF24L01_2.h: 203:     LATBbits.LATB1 = 0;
   717  0008D6  928A               	bcf	138,1,c	;volatile
   718  0008D8                     
   719                           ;./Librerias/nRF24L01_2.h: 204:     nrf2401_write(0x04, 0x00);
   720  0008D8  0E00               	movlw	0
   721  0008DA  6E42               	movwf	nrf2401_write@valor^0,c
   722  0008DC  0E04               	movlw	4
   723  0008DE  EC38  F005         	call	_nrf2401_write
   724                           
   725                           ;./Librerias/nRF24L01_2.h: 206:     nrf2401_write(0x03, 0x03);
   726  0008E2  0E03               	movlw	3
   727  0008E4  6E42               	movwf	nrf2401_write@valor^0,c
   728  0008E6  0E03               	movlw	3
   729  0008E8  EC38  F005         	call	_nrf2401_write
   730                           
   731                           ;./Librerias/nRF24L01_2.h: 207:     nrf2401_write(0x06, 0x08 + 0x06);
   732  0008EC  0E0E               	movlw	14
   733  0008EE  6E42               	movwf	nrf2401_write@valor^0,c
   734  0008F0  0E06               	movlw	6
   735  0008F2  EC38  F005         	call	_nrf2401_write
   736                           
   737                           ;./Librerias/nRF24L01_2.h: 208:     nrf2401_write(0x05, canal);
   738  0008F6  C048  F042         	movff	nrF2401_init_TX@canal,nrf2401_write@valor
   739  0008FA  0E05               	movlw	5
   740  0008FC  EC38  F005         	call	_nrf2401_write
   741                           
   742                           ;./Librerias/nRF24L01_2.h: 209:     nrf2401_write(0x01, 0);
   743  000900  0E00               	movlw	0
   744  000902  6E42               	movwf	nrf2401_write@valor^0,c
   745  000904  0E01               	movlw	1
   746  000906  EC38  F005         	call	_nrf2401_write
   747                           
   748                           ;./Librerias/nRF24L01_2.h: 210:     nrf2401_write(0x00, 0x02 +0x04 + 0x08);
   749  00090A  0E0E               	movlw	14
   750  00090C  6E42               	movwf	nrf2401_write@valor^0,c
   751  00090E  0E00               	movlw	0
   752  000910  EC38  F005         	call	_nrf2401_write
   753  000914                     
   754                           ;./Librerias/nRF24L01_2.h: 211:     nrf2401_direccion_TX_RX(direccion_tx, 0x10);
   755  000914  0E06               	movlw	low _direccion_tx
   756  000916  6E42               	movwf	nrf2401_direccion_TX_RX@direccion_^0,c
   757  000918  0E08               	movlw	high _direccion_tx
   758  00091A  6E43               	movwf	(nrf2401_direccion_TX_RX@direccion_+1)^0,c
   759  00091C  0E10               	movlw	16
   760  00091E  6E44               	movwf	nrf2401_direccion_TX_RX@registro^0,c
   761  000920  ECC2  F004         	call	_nrf2401_direccion_TX_RX	;wreg free
   762  000924                     
   763                           ;./Librerias/nRF24L01_2.h: 212:     nrf2401_direccion_TX_RX(direccion_tx, 0x0A);
   764  000924  0E06               	movlw	low _direccion_tx
   765  000926  6E42               	movwf	nrf2401_direccion_TX_RX@direccion_^0,c
   766  000928  0E08               	movlw	high _direccion_tx
   767  00092A  6E43               	movwf	(nrf2401_direccion_TX_RX@direccion_+1)^0,c
   768  00092C  0E0A               	movlw	10
   769  00092E  6E44               	movwf	nrf2401_direccion_TX_RX@registro^0,c
   770  000930  ECC2  F004         	call	_nrf2401_direccion_TX_RX	;wreg free
   771                           
   772                           ;./Librerias/nRF24L01_2.h: 213:     flush_TX_RX();
   773  000934  EC46  F005         	call	_flush_TX_RX	;wreg free
   774  000938                     
   775                           ;./Librerias/nRF24L01_2.h: 214:     LATBbits.LATB1 = 1;
   776  000938  828A               	bsf	138,1,c	;volatile
   777  00093A  0012               	return		;funcret
   778  00093C                     __end_of_nrF2401_init_TX:
   779                           	callstack 0
   780                           
   781 ;; *************** function _nrf2401_direccion_TX_RX *****************
   782 ;; Defined at:
   783 ;;		line 111 in file "./Librerias/nRF24L01_2.h"
   784 ;; Parameters:    Size  Location     Type
   785 ;;  direccion_      2    2[COMRAM] PTR const unsigned char 
   786 ;;		 -> direccion_tx(5), 
   787 ;;  registro        1    4[COMRAM] unsigned char 
   788 ;; Auto vars:     Size  Location     Type
   789 ;;  cont_s          1    7[COMRAM] unsigned char 
   790 ;; Return value:  Size  Location     Type
   791 ;;                  1    wreg      void 
   792 ;; Registers used:
   793 ;;		wreg, status,2, status,0, tblptrl, tblptrh, tblptru, cstack
   794 ;; Tracked objects:
   795 ;;		On entry : 0/0
   796 ;;		On exit  : 0/0
   797 ;;		Unchanged: 0/0
   798 ;; Data sizes:     COMRAM   BANK0   BANK1   BANK2   BANK3   BANK4   BANK5   BANK6   BANK7
   799 ;;      Params:         3       0       0       0       0       0       0       0       0
   800 ;;      Locals:         1       0       0       0       0       0       0       0       0
   801 ;;      Temps:          2       0       0       0       0       0       0       0       0
   802 ;;      Totals:         6       0       0       0       0       0       0       0       0
   803 ;;Total ram usage:        6 bytes
   804 ;; Hardware stack levels used: 1
   805 ;; Hardware stack levels required when called: 1
   806 ;; This function calls:
   807 ;;		_spi_s_write
   808 ;; This function is called by:
   809 ;;		_nrF2401_init_TX
   810 ;;		_nrF2401_init_RX
   811 ;; This function uses a non-reentrant model
   812 ;;
   813                           
   814                           	psect	text5
   815  000984                     __ptext5:
   816                           	callstack 0
   817  000984                     _nrf2401_direccion_TX_RX:
   818                           	callstack 28
   819  000984                     
   820                           ;./Librerias/nRF24L01_2.h: 111: void nrf2401_direccion_TX_RX(const unsigned char *direcc
      +                          ion_, unsigned char registro);./Librerias/nRF24L01_2.h: 112: {;./Librerias/nRF24L01_2.h:
      +                           113:     unsigned char cont_s;;./Librerias/nRF24L01_2.h: 115:     LATCbits.LATC2 = 0;
   821  000984  948B               	bcf	139,2,c	;volatile
   822  000986                     
   823                           ;./Librerias/nRF24L01_2.h: 116:     spi_s_write(registro | 0x20);
   824  000986  5044               	movf	nrf2401_direccion_TX_RX@registro^0,w,c
   825  000988  0920               	iorlw	32
   826  00098A  EC9E  F004         	call	_spi_s_write
   827  00098E                     
   828                           ;./Librerias/nRF24L01_2.h: 117:     for(cont_s = 0; cont_s < 5; cont_s++)
   829  00098E  0E00               	movlw	0
   830  000990  6E47               	movwf	nrf2401_direccion_TX_RX@cont_s^0,c
   831  000992                     l1426:
   832                           
   833                           ;./Librerias/nRF24L01_2.h: 118:     {;./Librerias/nRF24L01_2.h: 119:         spi_s_write
      +                          (direccion_[cont_s]);
   834  000992  5047               	movf	nrf2401_direccion_TX_RX@cont_s^0,w,c
   835  000994  2442               	addwf	nrf2401_direccion_TX_RX@direccion_^0,w,c
   836  000996  6E45               	movwf	??_nrf2401_direccion_TX_RX^0,c
   837  000998  0E00               	movlw	0
   838  00099A  2043               	addwfc	(nrf2401_direccion_TX_RX@direccion_+1)^0,w,c
   839  00099C  6E46               	movwf	(??_nrf2401_direccion_TX_RX+1)^0,c
   840  00099E  C045  FFF6         	movff	??_nrf2401_direccion_TX_RX,tblptrl
   841  0009A2  C046  FFF7         	movff	??_nrf2401_direccion_TX_RX+1,tblptrh
   842  0009A6                     	if	0	;tblptru may be non-zero
   843  0009A6                     	endif
   844  0009A6                     	if	0	;tblptru may be non-zero
   845  0009A6                     	endif
   846  0009A6  0008               	tblrd		*
   847  0009A8  50F5               	movf	tablat,w,c
   848  0009AA  EC9E  F004         	call	_spi_s_write
   849  0009AE                     
   850                           ;./Librerias/nRF24L01_2.h: 120:     }
   851  0009AE  2A47               	incf	nrf2401_direccion_TX_RX@cont_s^0,f,c
   852  0009B0  0E04               	movlw	4
   853  0009B2  6447               	cpfsgt	nrf2401_direccion_TX_RX@cont_s^0,c
   854  0009B4  EFDE  F004         	goto	u241
   855  0009B8  EFE0  F004         	goto	u240
   856  0009BC                     u241:
   857  0009BC  EFC9  F004         	goto	l1426
   858  0009C0                     u240:
   859  0009C0                     
   860                           ;./Librerias/nRF24L01_2.h: 121:     LATCbits.LATC2 = 1;
   861  0009C0  848B               	bsf	139,2,c	;volatile
   862  0009C2                     
   863                           ;./Librerias/nRF24L01_2.h: 122:     _delay((unsigned long)((5)*(48000000/4000000.0)));
   864  0009C2  0E14               	movlw	20
   865  0009C4                     u367:
   866  0009C4  2EE8               	decfsz	wreg,f,c
   867  0009C6  D7FE               	bra	u367
   868  0009C8  0012               	return		;funcret
   869  0009CA                     __end_of_nrf2401_direccion_TX_RX:
   870                           	callstack 0
   871                           
   872 ;; *************** function _flush_TX_RX *****************
   873 ;; Defined at:
   874 ;;		line 142 in file "./Librerias/nRF24L01_2.h"
   875 ;; Parameters:    Size  Location     Type
   876 ;;		None
   877 ;; Auto vars:     Size  Location     Type
   878 ;;		None
   879 ;; Return value:  Size  Location     Type
   880 ;;                  1    wreg      void 
   881 ;; Registers used:
   882 ;;		wreg, status,2, status,0, cstack
   883 ;; Tracked objects:
   884 ;;		On entry : 0/0
   885 ;;		On exit  : 0/0
   886 ;;		Unchanged: 0/0
   887 ;; Data sizes:     COMRAM   BANK0   BANK1   BANK2   BANK3   BANK4   BANK5   BANK6   BANK7
   888 ;;      Params:         0       0       0       0       0       0       0       0       0
   889 ;;      Locals:         0       0       0       0       0       0       0       0       0
   890 ;;      Temps:          0       0       0       0       0       0       0       0       0
   891 ;;      Totals:         0       0       0       0       0       0       0       0       0
   892 ;;Total ram usage:        0 bytes
   893 ;; Hardware stack levels used: 1
   894 ;; Hardware stack levels required when called: 2
   895 ;; This function calls:
   896 ;;		_nrf2401_comando
   897 ;;		_nrf2401_write
   898 ;; This function is called by:
   899 ;;		_nrF2401_init_TX
   900 ;;		_nrF2401_init_RX
   901 ;; This function uses a non-reentrant model
   902 ;;
   903                           
   904                           	psect	text6
   905  000A8C                     __ptext6:
   906                           	callstack 0
   907  000A8C                     _flush_TX_RX:
   908                           	callstack 27
   909  000A8C                     
   910                           ;./Librerias/nRF24L01_2.h: 144:     nrf2401_write(0x07, 0x70);
   911  000A8C  0E70               	movlw	112
   912  000A8E  6E42               	movwf	nrf2401_write@valor^0,c
   913  000A90  0E07               	movlw	7
   914  000A92  EC38  F005         	call	_nrf2401_write
   915                           
   916                           ;./Librerias/nRF24L01_2.h: 145:     nrf2401_comando(0xE1);
   917  000A96  0EE1               	movlw	225
   918  000A98  EC68  F005         	call	_nrf2401_comando
   919                           
   920                           ;./Librerias/nRF24L01_2.h: 146:     nrf2401_comando(0xE2);
   921  000A9C  0EE2               	movlw	226
   922  000A9E  EC68  F005         	call	_nrf2401_comando
   923  000AA2  0012               	return		;funcret
   924  000AA4                     __end_of_flush_TX_RX:
   925                           	callstack 0
   926                           
   927 ;; *************** function _nrf2401_write *****************
   928 ;; Defined at:
   929 ;;		line 81 in file "./Librerias/nRF24L01_2.h"
   930 ;; Parameters:    Size  Location     Type
   931 ;;  reg             1    wreg     unsigned char 
   932 ;;  valor           1    2[COMRAM] unsigned char 
   933 ;; Auto vars:     Size  Location     Type
   934 ;;  reg             1    3[COMRAM] unsigned char 
   935 ;; Return value:  Size  Location     Type
   936 ;;                  1    wreg      void 
   937 ;; Registers used:
   938 ;;		wreg, status,2, status,0, cstack
   939 ;; Tracked objects:
   940 ;;		On entry : 0/0
   941 ;;		On exit  : 0/0
   942 ;;		Unchanged: 0/0
   943 ;; Data sizes:     COMRAM   BANK0   BANK1   BANK2   BANK3   BANK4   BANK5   BANK6   BANK7
   944 ;;      Params:         1       0       0       0       0       0       0       0       0
   945 ;;      Locals:         1       0       0       0       0       0       0       0       0
   946 ;;      Temps:          0       0       0       0       0       0       0       0       0
   947 ;;      Totals:         2       0       0       0       0       0       0       0       0
   948 ;;Total ram usage:        2 bytes
   949 ;; Hardware stack levels used: 1
   950 ;; Hardware stack levels required when called: 1
   951 ;; This function calls:
   952 ;;		_spi_s_write
   953 ;; This function is called by:
   954 ;;		_flush_TX
   955 ;;		_flush_TX_RX
   956 ;;		_nrf2401_envia
   957 ;;		_nrF2401_init_TX
   958 ;;		_flush_RX
   959 ;;		_nrF2401_init_RX
   960 ;; This function uses a non-reentrant model
   961 ;;
   962                           
   963                           	psect	text7
   964  000A70                     __ptext7:
   965                           	callstack 0
   966  000A70                     _nrf2401_write:
   967                           	callstack 28
   968                           
   969                           ;incstack = 0
   970                           ;nrf2401_write@reg stored from wreg
   971  000A70  6E43               	movwf	nrf2401_write@reg^0,c
   972  000A72                     
   973                           ;./Librerias/nRF24L01_2.h: 81: void nrf2401_write(unsigned char reg, unsigned char valor
      +                          );./Librerias/nRF24L01_2.h: 82: {;./Librerias/nRF24L01_2.h: 83:     LATCbits.LATC2 = 0;
   974  000A72  948B               	bcf	139,2,c	;volatile
   975  000A74                     
   976                           ;./Librerias/nRF24L01_2.h: 84:     spi_s_write((reg | 0x20));
   977  000A74  5043               	movf	nrf2401_write@reg^0,w,c
   978  000A76  0920               	iorlw	32
   979  000A78  EC9E  F004         	call	_spi_s_write
   980                           
   981                           ;./Librerias/nRF24L01_2.h: 85:     spi_s_write(valor);
   982  000A7C  5042               	movf	nrf2401_write@valor^0,w,c
   983  000A7E  EC9E  F004         	call	_spi_s_write
   984  000A82                     
   985                           ;./Librerias/nRF24L01_2.h: 86:     LATCbits.LATC2 = 1;
   986  000A82  848B               	bsf	139,2,c	;volatile
   987  000A84                     
   988                           ;./Librerias/nRF24L01_2.h: 87:     _delay((unsigned long)((5)*(48000000/4000000.0)));
   989  000A84  0E14               	movlw	20
   990  000A86                     u377:
   991  000A86  2EE8               	decfsz	wreg,f,c
   992  000A88  D7FE               	bra	u377
   993  000A8A  0012               	return		;funcret
   994  000A8C                     __end_of_nrf2401_write:
   995                           	callstack 0
   996                           
   997 ;; *************** function _nrf2401_comando *****************
   998 ;; Defined at:
   999 ;;		line 91 in file "./Librerias/nRF24L01_2.h"
  1000 ;; Parameters:    Size  Location     Type
  1001 ;;  comando         1    wreg     unsigned char 
  1002 ;; Auto vars:     Size  Location     Type
  1003 ;;  comando         1    2[COMRAM] unsigned char 
  1004 ;; Return value:  Size  Location     Type
  1005 ;;                  1    wreg      void 
  1006 ;; Registers used:
  1007 ;;		wreg, status,2, status,0, cstack
  1008 ;; Tracked objects:
  1009 ;;		On entry : 0/0
  1010 ;;		On exit  : 0/0
  1011 ;;		Unchanged: 0/0
  1012 ;; Data sizes:     COMRAM   BANK0   BANK1   BANK2   BANK3   BANK4   BANK5   BANK6   BANK7
  1013 ;;      Params:         0       0       0       0       0       0       0       0       0
  1014 ;;      Locals:         1       0       0       0       0       0       0       0       0
  1015 ;;      Temps:          0       0       0       0       0       0       0       0       0
  1016 ;;      Totals:         1       0       0       0       0       0       0       0       0
  1017 ;;Total ram usage:        1 bytes
  1018 ;; Hardware stack levels used: 1
  1019 ;; Hardware stack levels required when called: 1
  1020 ;; This function calls:
  1021 ;;		_spi_s_write
  1022 ;; This function is called by:
  1023 ;;		_flush_TX
  1024 ;;		_flush_TX_RX
  1025 ;;		_flush_RX
  1026 ;; This function uses a non-reentrant model
  1027 ;;
  1028                           
  1029                           	psect	text8
  1030  000AD0                     __ptext8:
  1031                           	callstack 0
  1032  000AD0                     _nrf2401_comando:
  1033                           	callstack 27
  1034                           
  1035                           ;incstack = 0
  1036                           ;nrf2401_comando@comando stored from wreg
  1037  000AD0  6E42               	movwf	nrf2401_comando@comando^0,c
  1038  000AD2                     
  1039                           ;./Librerias/nRF24L01_2.h: 91: void nrf2401_comando(unsigned char comando);./Librerias/n
      +                          RF24L01_2.h: 92: {;./Librerias/nRF24L01_2.h: 93:     LATCbits.LATC2 = 0;
  1040  000AD2  948B               	bcf	139,2,c	;volatile
  1041  000AD4                     
  1042                           ;./Librerias/nRF24L01_2.h: 94:     spi_s_write(comando);
  1043  000AD4  5042               	movf	nrf2401_comando@comando^0,w,c
  1044  000AD6  EC9E  F004         	call	_spi_s_write
  1045  000ADA                     
  1046                           ;./Librerias/nRF24L01_2.h: 95:     LATCbits.LATC2 = 1;
  1047  000ADA  848B               	bsf	139,2,c	;volatile
  1048  000ADC                     
  1049                           ;./Librerias/nRF24L01_2.h: 96:     _delay((unsigned long)((5)*(48000000/4000000.0)));
  1050  000ADC  0E14               	movlw	20
  1051  000ADE                     u387:
  1052  000ADE  2EE8               	decfsz	wreg,f,c
  1053  000AE0  D7FE               	bra	u387
  1054  000AE2  0012               	return		;funcret
  1055  000AE4                     __end_of_nrf2401_comando:
  1056                           	callstack 0
  1057                           
  1058 ;; *************** function _spi_s_write *****************
  1059 ;; Defined at:
  1060 ;;		line 61 in file "./Librerias/nRF24L01_2.h"
  1061 ;; Parameters:    Size  Location     Type
  1062 ;;  dato_           1    wreg     unsigned char 
  1063 ;; Auto vars:     Size  Location     Type
  1064 ;;  dato_           1    0[COMRAM] unsigned char 
  1065 ;;  cont_s          1    1[COMRAM] unsigned char 
  1066 ;; Return value:  Size  Location     Type
  1067 ;;                  1    wreg      void 
  1068 ;; Registers used:
  1069 ;;		wreg, status,2, status,0
  1070 ;; Tracked objects:
  1071 ;;		On entry : 0/0
  1072 ;;		On exit  : 0/0
  1073 ;;		Unchanged: 0/0
  1074 ;; Data sizes:     COMRAM   BANK0   BANK1   BANK2   BANK3   BANK4   BANK5   BANK6   BANK7
  1075 ;;      Params:         0       0       0       0       0       0       0       0       0
  1076 ;;      Locals:         2       0       0       0       0       0       0       0       0
  1077 ;;      Temps:          0       0       0       0       0       0       0       0       0
  1078 ;;      Totals:         2       0       0       0       0       0       0       0       0
  1079 ;;Total ram usage:        2 bytes
  1080 ;; Hardware stack levels used: 1
  1081 ;; This function calls:
  1082 ;;		Nothing
  1083 ;; This function is called by:
  1084 ;;		_nrf2401_write
  1085 ;;		_nrf2401_comando
  1086 ;;		_nrf2401_direccion_TX_RX
  1087 ;;		_nrf2401_envia
  1088 ;;		_nrf2401_read
  1089 ;;		_nrf2401_recibe
  1090 ;; This function uses a non-reentrant model
  1091 ;;
  1092                           
  1093                           	psect	text9
  1094  00093C                     __ptext9:
  1095                           	callstack 0
  1096  00093C                     _spi_s_write:
  1097                           	callstack 29
  1098                           
  1099                           ;incstack = 0
  1100                           ;spi_s_write@dato_ stored from wreg
  1101  00093C  6E40               	movwf	spi_s_write@dato_^0,c
  1102  00093E                     
  1103                           ;./Librerias/nRF24L01_2.h: 61: void spi_s_write(unsigned char dato_);./Librerias/nRF24L0
      +                          1_2.h: 62: {;./Librerias/nRF24L01_2.h: 63:     unsigned char cont_s = 0;
  1104  00093E  0E00               	movlw	0
  1105  000940  6E41               	movwf	spi_s_write@cont_s^0,c
  1106                           
  1107                           ;./Librerias/nRF24L01_2.h: 65:     for(cont_s = 0; cont_s < 8; cont_s++)
  1108  000942  0E00               	movlw	0
  1109  000944  6E41               	movwf	spi_s_write@cont_s^0,c
  1110  000946                     l248:
  1111                           
  1112                           ;./Librerias/nRF24L01_2.h: 66:     {;./Librerias/nRF24L01_2.h: 68:         if((dato_ & 0
      +                          x80) != 0) LATCbits.LATC1 = 1;
  1113  000946  AE40               	btfss	spi_s_write@dato_^0,7,c
  1114  000948  EFA8  F004         	goto	u11
  1115  00094C  EFAA  F004         	goto	u10
  1116  000950                     u11:
  1117  000950  EFAD  F004         	goto	l250
  1118  000954                     u10:
  1119  000954  828B               	bsf	139,1,c	;volatile
  1120  000956  EFAE  F004         	goto	l1066
  1121  00095A                     l250:
  1122  00095A  928B               	bcf	139,1,c	;volatile
  1123  00095C                     l1066:
  1124                           
  1125                           ;./Librerias/nRF24L01_2.h: 70:         dato_ <<= 1;
  1126  00095C  90D8               	bcf	status,0,c
  1127  00095E  3640               	rlcf	spi_s_write@dato_^0,f,c
  1128  000960                     
  1129                           ;./Librerias/nRF24L01_2.h: 72:         LATBbits.LATB2 = 1;
  1130  000960  848A               	bsf	138,2,c	;volatile
  1131  000962                     
  1132                           ;./Librerias/nRF24L01_2.h: 73:         _delay((unsigned long)((5)*(48000000/4000000.0)))
      +                          ;
  1133  000962  0E14               	movlw	20
  1134  000964                     u397:
  1135  000964  2EE8               	decfsz	wreg,f,c
  1136  000966  D7FE               	bra	u397
  1137  000968                     
  1138                           ;./Librerias/nRF24L01_2.h: 74:         LATBbits.LATB2 = 0;
  1139  000968  948A               	bcf	138,2,c	;volatile
  1140  00096A                     
  1141                           ;./Librerias/nRF24L01_2.h: 75:         _delay((unsigned long)((5)*(48000000/4000000.0)))
      +                          ;
  1142  00096A  0E14               	movlw	20
  1143  00096C                     u407:
  1144  00096C  2EE8               	decfsz	wreg,f,c
  1145  00096E  D7FE               	bra	u407
  1146  000970                     
  1147                           ;./Librerias/nRF24L01_2.h: 76:     }
  1148  000970  2A41               	incf	spi_s_write@cont_s^0,f,c
  1149  000972  0E07               	movlw	7
  1150  000974  6441               	cpfsgt	spi_s_write@cont_s^0,c
  1151  000976  EFBF  F004         	goto	u21
  1152  00097A  EFC1  F004         	goto	u20
  1153  00097E                     u21:
  1154  00097E  EFA3  F004         	goto	l248
  1155  000982                     u20:
  1156  000982  0012               	return		;funcret
  1157  000984                     __end_of_spi_s_write:
  1158                           	callstack 0
  1159                           
  1160 ;; *************** function _SYSTEM_Initialize *****************
  1161 ;; Defined at:
  1162 ;;		line 50 in file "mcc_generated_files/mcc.c"
  1163 ;; Parameters:    Size  Location     Type
  1164 ;;		None
  1165 ;; Auto vars:     Size  Location     Type
  1166 ;;		None
  1167 ;; Return value:  Size  Location     Type
  1168 ;;                  1    wreg      void 
  1169 ;; Registers used:
  1170 ;;		wreg, status,2, cstack
  1171 ;; Tracked objects:
  1172 ;;		On entry : 0/0
  1173 ;;		On exit  : 0/0
  1174 ;;		Unchanged: 0/0
  1175 ;; Data sizes:     COMRAM   BANK0   BANK1   BANK2   BANK3   BANK4   BANK5   BANK6   BANK7
  1176 ;;      Params:         0       0       0       0       0       0       0       0       0
  1177 ;;      Locals:         0       0       0       0       0       0       0       0       0
  1178 ;;      Temps:          0       0       0       0       0       0       0       0       0
  1179 ;;      Totals:         0       0       0       0       0       0       0       0       0
  1180 ;;Total ram usage:        0 bytes
  1181 ;; Hardware stack levels used: 1
  1182 ;; Hardware stack levels required when called: 1
  1183 ;; This function calls:
  1184 ;;		_ADC_Initialize
  1185 ;;		_CCP2_Initialize
  1186 ;;		_OSCILLATOR_Initialize
  1187 ;;		_PIN_MANAGER_Initialize
  1188 ;; This function is called by:
  1189 ;;		_main
  1190 ;; This function uses a non-reentrant model
  1191 ;;
  1192                           
  1193                           	psect	text10
  1194  000AF6                     __ptext10:
  1195                           	callstack 0
  1196  000AF6                     _SYSTEM_Initialize:
  1197                           	callstack 29
  1198  000AF6                     
  1199                           ;mcc_generated_files/mcc.c: 53:     PIN_MANAGER_Initialize();
  1200  000AF6  EC00  F005         	call	_PIN_MANAGER_Initialize	;wreg free
  1201                           
  1202                           ;mcc_generated_files/mcc.c: 54:     OSCILLATOR_Initialize();
  1203  000AFA  EC28  F005         	call	_OSCILLATOR_Initialize	;wreg free
  1204                           
  1205                           ;mcc_generated_files/mcc.c: 55:     CCP2_Initialize();
  1206  000AFE  EC84  F005         	call	_CCP2_Initialize	;wreg free
  1207                           
  1208                           ;mcc_generated_files/mcc.c: 56:     ADC_Initialize();
  1209  000B02  EC5D  F005         	call	_ADC_Initialize	;wreg free
  1210  000B06  0012               	return		;funcret
  1211  000B08                     __end_of_SYSTEM_Initialize:
  1212                           	callstack 0
  1213                           
  1214 ;; *************** function _PIN_MANAGER_Initialize *****************
  1215 ;; Defined at:
  1216 ;;		line 55 in file "mcc_generated_files/pin_manager.c"
  1217 ;; Parameters:    Size  Location     Type
  1218 ;;		None
  1219 ;; Auto vars:     Size  Location     Type
  1220 ;;		None
  1221 ;; Return value:  Size  Location     Type
  1222 ;;                  1    wreg      void 
  1223 ;; Registers used:
  1224 ;;		wreg, status,2
  1225 ;; Tracked objects:
  1226 ;;		On entry : 0/0
  1227 ;;		On exit  : 0/0
  1228 ;;		Unchanged: 0/0
  1229 ;; Data sizes:     COMRAM   BANK0   BANK1   BANK2   BANK3   BANK4   BANK5   BANK6   BANK7
  1230 ;;      Params:         0       0       0       0       0       0       0       0       0
  1231 ;;      Locals:         0       0       0       0       0       0       0       0       0
  1232 ;;      Temps:          0       0       0       0       0       0       0       0       0
  1233 ;;      Totals:         0       0       0       0       0       0       0       0       0
  1234 ;;Total ram usage:        0 bytes
  1235 ;; Hardware stack levels used: 1
  1236 ;; This function calls:
  1237 ;;		Nothing
  1238 ;; This function is called by:
  1239 ;;		_SYSTEM_Initialize
  1240 ;; This function uses a non-reentrant model
  1241 ;;
  1242                           
  1243                           	psect	text11
  1244  000A00                     __ptext11:
  1245                           	callstack 0
  1246  000A00                     _PIN_MANAGER_Initialize:
  1247                           	callstack 29
  1248  000A00                     
  1249                           ;mcc_generated_files/pin_manager.c: 60:     LATA = 0x00;
  1250  000A00  0E00               	movlw	0
  1251  000A02  6E89               	movwf	137,c	;volatile
  1252                           
  1253                           ;mcc_generated_files/pin_manager.c: 61:     LATB = 0x00;
  1254  000A04  0E00               	movlw	0
  1255  000A06  6E8A               	movwf	138,c	;volatile
  1256                           
  1257                           ;mcc_generated_files/pin_manager.c: 62:     LATC = 0x00;
  1258  000A08  0E00               	movlw	0
  1259  000A0A  6E8B               	movwf	139,c	;volatile
  1260                           
  1261                           ;mcc_generated_files/pin_manager.c: 67:     TRISA = 0xC7;
  1262  000A0C  0EC7               	movlw	199
  1263  000A0E  6E92               	movwf	146,c	;volatile
  1264                           
  1265                           ;mcc_generated_files/pin_manager.c: 68:     TRISB = 0xFE;
  1266  000A10  0EFE               	movlw	254
  1267  000A12  6E93               	movwf	147,c	;volatile
  1268                           
  1269                           ;mcc_generated_files/pin_manager.c: 69:     TRISC = 0x87;
  1270  000A14  0E87               	movlw	135
  1271  000A16  6E94               	movwf	148,c	;volatile
  1272                           
  1273                           ;mcc_generated_files/pin_manager.c: 74:     ANSELC = 0x04;
  1274  000A18  0E04               	movlw	4
  1275  000A1A  010F               	movlb	15	; () banked
  1276  000A1C  6F5D               	movwf	93,b	;volatile
  1277                           
  1278                           ;mcc_generated_files/pin_manager.c: 75:     ANSELB = 0x3E;
  1279  000A1E  0E3E               	movlw	62
  1280  000A20  6F5C               	movwf	92,b	;volatile
  1281                           
  1282                           ;mcc_generated_files/pin_manager.c: 76:     ANSELA = 0x07;
  1283  000A22  0E07               	movlw	7
  1284  000A24  6F5B               	movwf	91,b	;volatile
  1285                           
  1286                           ;mcc_generated_files/pin_manager.c: 81:     WPUB = 0x00;
  1287  000A26  0E00               	movlw	0
  1288  000A28  6E85               	movwf	133,c	;volatile
  1289  000A2A                     
  1290                           ; BSR set to: 15
  1291                           ;mcc_generated_files/pin_manager.c: 82:     INTCON2bits.nRBPU = 1;
  1292  000A2A  8EF1               	bsf	241,7,c	;volatile
  1293  000A2C                     
  1294                           ; BSR set to: 15
  1295  000A2C  0012               	return		;funcret
  1296  000A2E                     __end_of_PIN_MANAGER_Initialize:
  1297                           	callstack 0
  1298                           
  1299 ;; *************** function _OSCILLATOR_Initialize *****************
  1300 ;; Defined at:
  1301 ;;		line 60 in file "mcc_generated_files/mcc.c"
  1302 ;; Parameters:    Size  Location     Type
  1303 ;;		None
  1304 ;; Auto vars:     Size  Location     Type
  1305 ;;		None
  1306 ;; Return value:  Size  Location     Type
  1307 ;;                  1    wreg      void 
  1308 ;; Registers used:
  1309 ;;		wreg, status,2
  1310 ;; Tracked objects:
  1311 ;;		On entry : 0/0
  1312 ;;		On exit  : 0/0
  1313 ;;		Unchanged: 0/0
  1314 ;; Data sizes:     COMRAM   BANK0   BANK1   BANK2   BANK3   BANK4   BANK5   BANK6   BANK7
  1315 ;;      Params:         0       0       0       0       0       0       0       0       0
  1316 ;;      Locals:         0       0       0       0       0       0       0       0       0
  1317 ;;      Temps:          0       0       0       0       0       0       0       0       0
  1318 ;;      Totals:         0       0       0       0       0       0       0       0       0
  1319 ;;Total ram usage:        0 bytes
  1320 ;; Hardware stack levels used: 1
  1321 ;; This function calls:
  1322 ;;		Nothing
  1323 ;; This function is called by:
  1324 ;;		_SYSTEM_Initialize
  1325 ;; This function uses a non-reentrant model
  1326 ;;
  1327                           
  1328                           	psect	text12
  1329  000A50                     __ptext12:
  1330                           	callstack 0
  1331  000A50                     _OSCILLATOR_Initialize:
  1332                           	callstack 29
  1333  000A50                     
  1334                           ;mcc_generated_files/mcc.c: 63:     OSCCON = 0x70;
  1335  000A50  0E70               	movlw	112
  1336  000A52  6ED3               	movwf	211,c	;volatile
  1337                           
  1338                           ;mcc_generated_files/mcc.c: 65:     OSCCON2 = 0x00;
  1339  000A54  0E00               	movlw	0
  1340  000A56  6ED2               	movwf	210,c	;volatile
  1341                           
  1342                           ;mcc_generated_files/mcc.c: 67:     OSCTUNE = 0x80;
  1343  000A58  0E80               	movlw	128
  1344  000A5A  6E9B               	movwf	155,c	;volatile
  1345                           
  1346                           ;mcc_generated_files/mcc.c: 69:     ACTCON = 0x00;
  1347  000A5C  0E00               	movlw	0
  1348  000A5E  6EB5               	movwf	181,c	;volatile
  1349  000A60                     l118:
  1350                           
  1351                           ;mcc_generated_files/mcc.c: 71:     while(PLLRDY == 0)
  1352  000A60  AED2               	btfss	4050,7,c	;volatile
  1353  000A62  EF35  F005         	goto	u51
  1354  000A66  EF37  F005         	goto	u50
  1355  000A6A                     u51:
  1356  000A6A  EF30  F005         	goto	l118
  1357  000A6E                     u50:
  1358  000A6E  0012               	return		;funcret
  1359  000A70                     __end_of_OSCILLATOR_Initialize:
  1360                           	callstack 0
  1361                           
  1362 ;; *************** function _CCP2_Initialize *****************
  1363 ;; Defined at:
  1364 ;;		line 49 in file "mcc_generated_files/ccp2.c"
  1365 ;; Parameters:    Size  Location     Type
  1366 ;;		None
  1367 ;; Auto vars:     Size  Location     Type
  1368 ;;		None
  1369 ;; Return value:  Size  Location     Type
  1370 ;;                  1    wreg      void 
  1371 ;; Registers used:
  1372 ;;		wreg, status,2
  1373 ;; Tracked objects:
  1374 ;;		On entry : 0/0
  1375 ;;		On exit  : 0/0
  1376 ;;		Unchanged: 0/0
  1377 ;; Data sizes:     COMRAM   BANK0   BANK1   BANK2   BANK3   BANK4   BANK5   BANK6   BANK7
  1378 ;;      Params:         0       0       0       0       0       0       0       0       0
  1379 ;;      Locals:         0       0       0       0       0       0       0       0       0
  1380 ;;      Temps:          0       0       0       0       0       0       0       0       0
  1381 ;;      Totals:         0       0       0       0       0       0       0       0       0
  1382 ;;Total ram usage:        0 bytes
  1383 ;; Hardware stack levels used: 1
  1384 ;; This function calls:
  1385 ;;		Nothing
  1386 ;; This function is called by:
  1387 ;;		_SYSTEM_Initialize
  1388 ;; This function uses a non-reentrant model
  1389 ;;
  1390                           
  1391                           	psect	text13
  1392  000B08                     __ptext13:
  1393                           	callstack 0
  1394  000B08                     _CCP2_Initialize:
  1395                           	callstack 29
  1396  000B08                     
  1397                           ;mcc_generated_files/ccp2.c: 53:  CCP2CON = 0x00;
  1398  000B08  0E00               	movlw	0
  1399  000B0A  6E97               	movwf	151,c	;volatile
  1400                           
  1401                           ;mcc_generated_files/ccp2.c: 56:  CCPR2L = 0x00;
  1402  000B0C  0E00               	movlw	0
  1403  000B0E  6E90               	movwf	144,c	;volatile
  1404                           
  1405                           ;mcc_generated_files/ccp2.c: 59:  CCPR2H = 0x00;
  1406  000B10  0E00               	movlw	0
  1407  000B12  6E91               	movwf	145,c	;volatile
  1408  000B14  0012               	return		;funcret
  1409  000B16                     __end_of_CCP2_Initialize:
  1410                           	callstack 0
  1411                           
  1412 ;; *************** function _ADC_Initialize *****************
  1413 ;; Defined at:
  1414 ;;		line 62 in file "mcc_generated_files/adc.c"
  1415 ;; Parameters:    Size  Location     Type
  1416 ;;		None
  1417 ;; Auto vars:     Size  Location     Type
  1418 ;;		None
  1419 ;; Return value:  Size  Location     Type
  1420 ;;                  1    wreg      void 
  1421 ;; Registers used:
  1422 ;;		wreg, status,2
  1423 ;; Tracked objects:
  1424 ;;		On entry : 0/0
  1425 ;;		On exit  : 0/0
  1426 ;;		Unchanged: 0/0
  1427 ;; Data sizes:     COMRAM   BANK0   BANK1   BANK2   BANK3   BANK4   BANK5   BANK6   BANK7
  1428 ;;      Params:         0       0       0       0       0       0       0       0       0
  1429 ;;      Locals:         0       0       0       0       0       0       0       0       0
  1430 ;;      Temps:          0       0       0       0       0       0       0       0       0
  1431 ;;      Totals:         0       0       0       0       0       0       0       0       0
  1432 ;;Total ram usage:        0 bytes
  1433 ;; Hardware stack levels used: 1
  1434 ;; This function calls:
  1435 ;;		Nothing
  1436 ;; This function is called by:
  1437 ;;		_SYSTEM_Initialize
  1438 ;; This function uses a non-reentrant model
  1439 ;;
  1440                           
  1441                           	psect	text14
  1442  000ABA                     __ptext14:
  1443                           	callstack 0
  1444  000ABA                     _ADC_Initialize:
  1445                           	callstack 29
  1446  000ABA                     
  1447                           ;mcc_generated_files/adc.c: 67:     ADCON1 = 0x00;
  1448  000ABA  0E00               	movlw	0
  1449  000ABC  6EC1               	movwf	193,c	;volatile
  1450                           
  1451                           ;mcc_generated_files/adc.c: 70:     ADCON2 = 0x87;
  1452  000ABE  0E87               	movlw	135
  1453  000AC0  6EC0               	movwf	192,c	;volatile
  1454                           
  1455                           ;mcc_generated_files/adc.c: 73:     ADRESL = 0x00;
  1456  000AC2  0E00               	movlw	0
  1457  000AC4  6EC3               	movwf	195,c	;volatile
  1458                           
  1459                           ;mcc_generated_files/adc.c: 76:     ADRESH = 0x00;
  1460  000AC6  0E00               	movlw	0
  1461  000AC8  6EC4               	movwf	196,c	;volatile
  1462                           
  1463                           ;mcc_generated_files/adc.c: 79:     ADCON0 = 0x01;
  1464  000ACA  0E01               	movlw	1
  1465  000ACC  6EC2               	movwf	194,c	;volatile
  1466  000ACE  0012               	return		;funcret
  1467  000AD0                     __end_of_ADC_Initialize:
  1468                           	callstack 0
  1469                           
  1470                           	psect	rparam
  1471  0000                     
  1472                           	psect	idloc
  1473                           
  1474                           ;Config register IDLOC0 @ 0x200000
  1475                           ;	unspecified, using default values
  1476  200000                     	org	2097152
  1477  200000  FF                 	db	255
  1478                           
  1479                           ;Config register IDLOC1 @ 0x200001
  1480                           ;	unspecified, using default values
  1481  200001                     	org	2097153
  1482  200001  FF                 	db	255
  1483                           
  1484                           ;Config register IDLOC2 @ 0x200002
  1485                           ;	unspecified, using default values
  1486  200002                     	org	2097154
  1487  200002  FF                 	db	255
  1488                           
  1489                           ;Config register IDLOC3 @ 0x200003
  1490                           ;	unspecified, using default values
  1491  200003                     	org	2097155
  1492  200003  FF                 	db	255
  1493                           
  1494                           ;Config register IDLOC4 @ 0x200004
  1495                           ;	unspecified, using default values
  1496  200004                     	org	2097156
  1497  200004  FF                 	db	255
  1498                           
  1499                           ;Config register IDLOC5 @ 0x200005
  1500                           ;	unspecified, using default values
  1501  200005                     	org	2097157
  1502  200005  FF                 	db	255
  1503                           
  1504                           ;Config register IDLOC6 @ 0x200006
  1505                           ;	unspecified, using default values
  1506  200006                     	org	2097158
  1507  200006  FF                 	db	255
  1508                           
  1509                           ;Config register IDLOC7 @ 0x200007
  1510                           ;	unspecified, using default values
  1511  200007                     	org	2097159
  1512  200007  FF                 	db	255
  1513                           
  1514                           	psect	config
  1515                           
  1516                           ;Config register CONFIG1L @ 0x300000
  1517                           ;	PLL Selection
  1518                           ;	PLLSEL = PLL3X, 3x clock multiplier
  1519                           ;	PLL Enable Configuration bit
  1520                           ;	CFGPLLEN = ON, PLL Enabled
  1521                           ;	CPU System Clock Postscaler
  1522                           ;	CPUDIV = NOCLKDIV, CPU uses system clock (no divide)
  1523                           ;	Low Speed USB mode with 48 MHz system clock
  1524                           ;	LS48MHZ = SYS48X8, System clock at 48 MHz, USB clock divider is set to 8
  1525  300000                     	org	3145728
  1526  300000  23                 	db	35
  1527                           
  1528                           ;Config register CONFIG1H @ 0x300001
  1529                           ;	Oscillator Selection
  1530                           ;	FOSC = HSH, HS oscillator, high power 16MHz to 25MHz
  1531                           ;	Primary Oscillator Shutdown
  1532                           ;	PCLKEN = ON, Primary oscillator enabled
  1533                           ;	Fail-Safe Clock Monitor
  1534                           ;	FCMEN = OFF, Fail-Safe Clock Monitor disabled
  1535                           ;	Internal/External Oscillator Switchover
  1536                           ;	IESO = OFF, Oscillator Switchover mode disabled
  1537  300001                     	org	3145729
  1538  300001  22                 	db	34
  1539                           
  1540                           ;Config register CONFIG2L @ 0x300002
  1541                           ;	Power-up Timer Enable
  1542                           ;	nPWRTEN = ON, Power up timer enabled
  1543                           ;	Brown-out Reset Enable
  1544                           ;	BOREN = SBORDIS, BOR enabled in hardware (SBOREN is ignored)
  1545                           ;	Brown-out Reset Voltage
  1546                           ;	BORV = 190, BOR set to 1.9V nominal
  1547                           ;	Low-Power Brown-out Reset
  1548                           ;	nLPBOR = OFF, Low-Power Brown-out Reset disabled
  1549  300002                     	org	3145730
  1550  300002  5E                 	db	94
  1551                           
  1552                           ;Config register CONFIG2H @ 0x300003
  1553                           ;	Watchdog Timer Enable bits
  1554                           ;	WDTEN = OFF, WDT disabled in hardware (SWDTEN ignored)
  1555                           ;	Watchdog Timer Postscaler
  1556                           ;	WDTPS = 32768, 1:32768
  1557  300003                     	org	3145731
  1558  300003  3C                 	db	60
  1559                           
  1560                           ; Padding undefined space
  1561  300004                     	org	3145732
  1562  300004  FF                 	db	255
  1563                           
  1564                           ;Config register CONFIG3H @ 0x300005
  1565                           ;	CCP2 MUX bit
  1566                           ;	CCP2MX = RC1, CCP2 input/output is multiplexed with RC1
  1567                           ;	PORTB A/D Enable bit
  1568                           ;	PBADEN = OFF, PORTB<5:0> pins are configured as digital I/O on Reset
  1569                           ;	Timer3 Clock Input MUX bit
  1570                           ;	T3CMX = RC0, T3CKI function is on RC0
  1571                           ;	SDO Output MUX bit
  1572                           ;	SDOMX = RB3, SDO function is on RB3
  1573                           ;	Master Clear Reset Pin Enable
  1574                           ;	MCLRE = ON, MCLR pin enabled; RE3 input disabled
  1575  300005                     	org	3145733
  1576  300005  D1                 	db	209
  1577                           
  1578                           ;Config register CONFIG4L @ 0x300006
  1579                           ;	Stack Full/Underflow Reset
  1580                           ;	STVREN = ON, Stack full/underflow will cause Reset
  1581                           ;	Single-Supply ICSP Enable bit
  1582                           ;	LVP = ON, Single-Supply ICSP enabled if MCLRE is also 1
  1583                           ;	Dedicated In-Circuit Debug/Programming Port Enable
  1584                           ;	ICPRT = OFF, ICPORT disabled
  1585                           ;	Extended Instruction Set Enable bit
  1586                           ;	XINST = OFF, Instruction set extension and Indexed Addressing mode disabled
  1587                           ;	Background Debugger Enable bit
  1588                           ;	DEBUG = OFF, Background debugger disabled, RB6 and RB7 configured as general purpose I
      +                          /O pins
  1589  300006                     	org	3145734
  1590  300006  85                 	db	133
  1591                           
  1592                           ; Padding undefined space
  1593  300007                     	org	3145735
  1594  300007  FF                 	db	255
  1595                           
  1596                           ;Config register CONFIG5L @ 0x300008
  1597                           ;	Block 0 Code Protect
  1598                           ;	CP0 = OFF, Block 0 is not code-protected
  1599                           ;	Block 1 Code Protect
  1600                           ;	CP1 = OFF, Block 1 is not code-protected
  1601                           ;	Block 2 Code Protect
  1602                           ;	CP2 = OFF, Block 2 is not code-protected
  1603                           ;	Block 3 Code Protect
  1604                           ;	CP3 = OFF, Block 3 is not code-protected
  1605  300008                     	org	3145736
  1606  300008  0F                 	db	15
  1607                           
  1608                           ;Config register CONFIG5H @ 0x300009
  1609                           ;	Boot Block Code Protect
  1610                           ;	CPB = OFF, Boot block is not code-protected
  1611                           ;	Data EEPROM Code Protect
  1612                           ;	CPD = OFF, Data EEPROM is not code-protected
  1613  300009                     	org	3145737
  1614  300009  C0                 	db	192
  1615                           
  1616                           ;Config register CONFIG6L @ 0x30000A
  1617                           ;	Block 0 Write Protect
  1618                           ;	WRT0 = OFF, Block 0 (0800-1FFFh) is not write-protected
  1619                           ;	Block 1 Write Protect
  1620                           ;	WRT1 = OFF, Block 1 (2000-3FFFh) is not write-protected
  1621                           ;	Block 2 Write Protect
  1622                           ;	WRT2 = OFF, Block 2 (04000-5FFFh) is not write-protected
  1623                           ;	Block 3 Write Protect
  1624                           ;	WRT3 = OFF, Block 3 (06000-7FFFh) is not write-protected
  1625  30000A                     	org	3145738
  1626  30000A  0F                 	db	15
  1627                           
  1628                           ;Config register CONFIG6H @ 0x30000B
  1629                           ;	Configuration Registers Write Protect
  1630                           ;	WRTC = OFF, Configuration registers (300000-3000FFh) are not write-protected
  1631                           ;	Boot Block Write Protect
  1632                           ;	WRTB = OFF, Boot block (0000-7FFh) is not write-protected
  1633                           ;	Data EEPROM Write Protect
  1634                           ;	WRTD = OFF, Data EEPROM is not write-protected
  1635  30000B                     	org	3145739
  1636  30000B  E0                 	db	224
  1637                           
  1638                           ;Config register CONFIG7L @ 0x30000C
  1639                           ;	Block 0 Table Read Protect
  1640                           ;	EBTR0 = OFF, Block 0 is not protected from table reads executed in other blocks
  1641                           ;	Block 1 Table Read Protect
  1642                           ;	EBTR1 = OFF, Block 1 is not protected from table reads executed in other blocks
  1643                           ;	Block 2 Table Read Protect
  1644                           ;	EBTR2 = OFF, Block 2 is not protected from table reads executed in other blocks
  1645                           ;	Block 3 Table Read Protect
  1646                           ;	EBTR3 = OFF, Block 3 is not protected from table reads executed in other blocks
  1647  30000C                     	org	3145740
  1648  30000C  0F                 	db	15
  1649                           
  1650                           ;Config register CONFIG7H @ 0x30000D
  1651                           ;	Boot Block Table Read Protect
  1652                           ;	EBTRB = OFF, Boot block is not protected from table reads executed in other blocks
  1653  30000D                     	org	3145741
  1654  30000D  40                 	db	64
  1655                           tosu	equ	0xFFF
  1656                           tosh	equ	0xFFE
  1657                           tosl	equ	0xFFD
  1658                           stkptr	equ	0xFFC
  1659                           pclatu	equ	0xFFB
  1660                           pclath	equ	0xFFA
  1661                           pcl	equ	0xFF9
  1662                           tblptru	equ	0xFF8
  1663                           tblptrh	equ	0xFF7
  1664                           tblptrl	equ	0xFF6
  1665                           tablat	equ	0xFF5
  1666                           prodh	equ	0xFF4
  1667                           prodl	equ	0xFF3
  1668                           indf0	equ	0xFEF
  1669                           postinc0	equ	0xFEE
  1670                           postdec0	equ	0xFED
  1671                           preinc0	equ	0xFEC
  1672                           plusw0	equ	0xFEB
  1673                           fsr0h	equ	0xFEA
  1674                           fsr0l	equ	0xFE9
  1675                           wreg	equ	0xFE8
  1676                           indf1	equ	0xFE7
  1677                           postinc1	equ	0xFE6
  1678                           postdec1	equ	0xFE5
  1679                           preinc1	equ	0xFE4
  1680                           plusw1	equ	0xFE3
  1681                           fsr1h	equ	0xFE2
  1682                           fsr1l	equ	0xFE1
  1683                           bsr	equ	0xFE0
  1684                           indf2	equ	0xFDF
  1685                           postinc2	equ	0xFDE
  1686                           postdec2	equ	0xFDD
  1687                           preinc2	equ	0xFDC
  1688                           plusw2	equ	0xFDB
  1689                           fsr2h	equ	0xFDA
  1690                           fsr2l	equ	0xFD9
  1691                           status	equ	0xFD8

Data Sizes:
    Strings     15
    Constant    10
    Data        0
    BSS         93
    Persistent  0
    Stack       0

Auto Spaces:
    Space          Size  Autos    Used
    COMRAM           95     11      74
    BANK0           160      0      30
    BANK1           256      0       0
    BANK2           256      0       0
    BANK3           256      0       0
    BANK4           256      0       0
    BANK5           256      0       0
    BANK6           256      0       0
    BANK7           256      0       0

Pointer List with Targets:

    ADC_InterruptHandler	PTR FTN()void  size(2) Largest target is 1
		 -> Absolute function(), 

    sp__strchr	PTR unsigned char  size(2) Largest target is 30
		 -> NULL(NULL[0]), trama(COMRAM[30]), 

    sp__strstr	PTR unsigned char  size(2) Largest target is 30
		 -> NULL(NULL[0]), trama(COMRAM[30]), 

    nrf2401_direccion_TX_RX@direccion_	PTR const unsigned char  size(2) Largest target is 5
		 -> direccion_tx(CODE[5]), 

    EUSART1_ErrorHandler	PTR FTN()void  size(2) Largest target is 1
		 -> Absolute function(), EUSART1_DefaultErrorHandler(), 

    EUSART1_OverrunErrorHandler	PTR FTN()void  size(2) Largest target is 1
		 -> Absolute function(), EUSART1_DefaultOverrunErrorHandler(), 

    EUSART1_FramingErrorHandler	PTR FTN()void  size(2) Largest target is 1
		 -> Absolute function(), EUSART1_DefaultFramingErrorHandler(), 


Critical Paths under _main in COMRAM

    _main->_nrF2401_init_TX
    _nrf2401_envia->_nrf2401_write
    _flush_TX->_nrf2401_write
    _nrF2401_init_TX->_nrf2401_direccion_TX_RX
    _nrf2401_direccion_TX_RX->_spi_s_write
    _flush_TX_RX->_nrf2401_write
    _nrf2401_write->_spi_s_write
    _nrf2401_comando->_spi_s_write

Critical Paths under _main in BANK0

    None.

Critical Paths under _main in BANK1

    None.

Critical Paths under _main in BANK2

    None.

Critical Paths under _main in BANK3

    None.

Critical Paths under _main in BANK4

    None.

Critical Paths under _main in BANK5

    None.

Critical Paths under _main in BANK6

    None.

Critical Paths under _main in BANK7

    None.

Call Graph Tables:

 ---------------------------------------------------------------------------------
 (Depth) Function   	        Calls       Base Space   Used Autos Params    Refs
 ---------------------------------------------------------------------------------
 (0) _main                                                 2     2      0    7107
                                              9 COMRAM     2     2      0
                  _SYSTEM_Initialize
                    _nrF2401_init_TX
                      _nrf2401_envia
                         _spi_s_init
 ---------------------------------------------------------------------------------
 (1) _spi_s_init                                           0     0      0       0
 ---------------------------------------------------------------------------------
 (1) _nrf2401_envia                                        2     2      0    3194
                                              4 COMRAM     1     1      0
                           _flush_TX
                      _nrf2401_write
                        _spi_s_write
 ---------------------------------------------------------------------------------
 (2) _flush_TX                                             0     0      0    1593
                    _nrf2401_comando
                      _nrf2401_write
 ---------------------------------------------------------------------------------
 (1) _nrF2401_init_TX                                      1     1      0    3913
                                              8 COMRAM     1     1      0
                        _flush_TX_RX
            _nrf2401_direccion_TX_RX
                      _nrf2401_write
 ---------------------------------------------------------------------------------
 (2) _nrf2401_direccion_TX_RX                              6     3      3     765
                                              2 COMRAM     6     3      3
                        _spi_s_write
 ---------------------------------------------------------------------------------
 (2) _flush_TX_RX                                          0     0      0    1593
                    _nrf2401_comando
                      _nrf2401_write
 ---------------------------------------------------------------------------------
 (2) _nrf2401_write                                        2     1      1    1533
                                              2 COMRAM     2     1      1
                        _spi_s_write
 ---------------------------------------------------------------------------------
 (3) _nrf2401_comando                                      1     1      0      60
                                              2 COMRAM     1     1      0
                        _spi_s_write
 ---------------------------------------------------------------------------------
 (2) _spi_s_write                                          2     2      0      45
                                              0 COMRAM     2     2      0
 ---------------------------------------------------------------------------------
 (1) _SYSTEM_Initialize                                    0     0      0       0
                     _ADC_Initialize
                    _CCP2_Initialize
              _OSCILLATOR_Initialize
             _PIN_MANAGER_Initialize
 ---------------------------------------------------------------------------------
 (2) _PIN_MANAGER_Initialize                               0     0      0       0
 ---------------------------------------------------------------------------------
 (2) _OSCILLATOR_Initialize                                0     0      0       0
 ---------------------------------------------------------------------------------
 (2) _CCP2_Initialize                                      0     0      0       0
 ---------------------------------------------------------------------------------
 (2) _ADC_Initialize                                       0     0      0       0
 ---------------------------------------------------------------------------------
 Estimated maximum stack depth 3
 ---------------------------------------------------------------------------------

 Call Graph Graphs:

 _main (ROOT)
   _SYSTEM_Initialize
     _ADC_Initialize
     _CCP2_Initialize
     _OSCILLATOR_Initialize
     _PIN_MANAGER_Initialize
   _nrF2401_init_TX
     _flush_TX_RX
       _nrf2401_comando
         _spi_s_write
       _nrf2401_write
         _spi_s_write
     _nrf2401_direccion_TX_RX
       _spi_s_write
     _nrf2401_write
   _nrf2401_envia
     _flush_TX
       _nrf2401_comando
       _nrf2401_write
     _nrf2401_write
     _spi_s_write
   _spi_s_init

 Address spaces:
Name               Size   Autos  Total    Cost      Usage
BIGRAM             7FF      0       0      21        0.0%
EEDATA             100      0       0       0        0.0%
BITBANK7           100      0       0      19        0.0%
BANK7              100      0       0      20        0.0%
BITBANK6           100      0       0      17        0.0%
BANK6              100      0       0      18        0.0%
BITBANK5           100      0       0      15        0.0%
BANK5              100      0       0      16        0.0%
BITBANK4           100      0       0      13        0.0%
BANK4              100      0       0      14        0.0%
BITBANK3           100      0       0      11        0.0%
BANK3              100      0       0      12        0.0%
BITBANK2           100      0       0       9        0.0%
BANK2              100      0       0      10        0.0%
BITBANK1           100      0       0       7        0.0%
BANK1              100      0       0       8        0.0%
BITBANK0            A0      0       0       4        0.0%
BANK0               A0      0      1E       5       18.8%
BITCOMRAM           5F      0       0       0        0.0%
COMRAM              5F      B      4A       1       77.9%
BITSFR_1             0      0       0     200        0.0%
SFR_1                0      0       0     200        0.0%
BITSFR               0      0       0     200        0.0%
SFR                  0      0       0     200        0.0%
STACK                0      0       0       2        0.0%
NULL                 0      0       0       0        0.0%
ABS                  0      0      68       6        0.0%
DATA                 0      0      68       3        0.0%
CODE                 0      0       0       0        0.0%


Microchip Technology PIC18 Macro Assembler V2.32 build 20210201212658 
Symbol Table                                                                                   Mon Dec 05 18:10:23 2022

                                u10 0954                                  u11 0950  
                                u20 0982                                  u21 097E  
                                u50 0A6E                                  u51 0A6A  
                               l121 0A6E                                 l115 0B06  
                               l118 0A60                                 l160 0B14  
                               l250 095A                                 l148 0A2C  
                               l252 0982                                 l255 0A8A  
                               l239 0AB8                                 l248 0946  
                               l272 0AF4                                 l265 09C0  
                               l258 0AE2                                 l266 09C8  
                               l179 0ACE                                 l275 0AA2  
                               l278 09FE                                 l287 093A  
                               u310 089C                                 u311 0898  
                               u240 09C0                                 u241 09BC  
                               u305 0876                                 u407 096C  
                               u327 083C                                 u280 0864  
                               u337 0880                                 u281 0860  
                               u290 0874                                 u347 08BE  
                               u291 086E                                 u357 09EE  
                               u367 09C4                                 u377 0A86  
                               u387 0ADE                                 u397 0964  
                               wreg 000FE8                          _TXSTA1bits 000FAC  
                   _nrF2401_init_TX 08D4                                l1120 0ADA  
                              l1130 0B08                                l1122 0ADC  
                              l1132 0ABA                                l1124 0A00  
                              l1116 0AD2                                l1126 0A2A  
                              l1070 0962                                l1118 0AD4  
                              l1128 0A50                                l1072 0968  
                              l1064 0954                                l1074 096A  
                              l1066 095C                                l1058 093E  
                              l1410 0A74                                l1076 0970  
                              l1068 0960                                l1412 0A82  
                              l1420 098E                                l1078 0972  
                              l1414 0A84                                l1430 09B0  
                              l1510 082A                                l1408 0A72  
                              l1432 09C2                                l1416 0984  
                              l1440 09CC                                l1520 084C  
                              l1512 082E                                l1504 081C  
                              l1186 0AF6                                l1426 0992  
                              l1418 0986                                l1434 0AE4  
                              l1450 09E2                                l1442 09CC  
                              l1530 088E                                l1522 0850  
                              l1514 0830                                l1506 0820  
                              l1436 0A8C                                l1428 09AE  
                              l1460 09F4                                l1452 09E8  
                              l1444 09D0                                l1188 0AA4  
                              l1540 08B4                                l1532 089C  
                              l1524 0856                                l1516 0832  
                              l1508 0826                                l1470 0938  
                              l1462 08D6                                l1454 09EA  
                              l1446 09DA                                l1534 08A0  
                              l1526 0864                                l1518 084A  
                              l1464 08D8                                l1456 09EC  
                              l1448 09DC                                l1536 08AA  
                              l1528 0876                                l1466 0914  
                              l1458 09F2                                l1538 08AE  
                              l1468 0924                                STR_1 080B  
                              STR_3 0817                                STR_5 0811  
                              _LATA 000F89                                _LATB 000F8A  
                              _LATC 000F8B                                _WPUB 000F85  
           __end_of_CCP2_Initialize 0B16                                _main 081C  
                              start 0000                    nrf2401_write@reg 0043  
                      ?_flush_TX_RX 0040                        ___param_bank 000000  
   __end_of_nrf2401_direccion_TX_RX 09CA      __size_of_OSCILLATOR_Initialize 0020  
     __end_of_OSCILLATOR_Initialize 0A70                               ?_main 0040  
                             _LATB0 007C50                               _LATA5 007C4D  
                             _TRISA 000F92                               _TRISB 000F93  
                             _TRISC 000F94                               _trama 0022  
                             _texto 0001                               tablat 000FF5  
                             status 000FD8  _EUSART1_DefaultFramingErrorHandler 000000  
                   __initialization 0A2E                        __end_of_main 08D4  
                            ??_main 0049                       __activetblptr 000002  
           __end_of_nrF2401_init_TX 093C                              _ADCON0 000FC2  
                            _ADCON1 000FC1                              _ADCON2 000FC0  
                            _ACTCON 000FB5                              _ADRESH 000FC4  
                            _ADRESL 000FC3                              _CCPR2H 000F91  
                            _CCPR2L 000F90                              _ANSELA 000F5B  
                            _ANSELB 000F5C                              _ANSELC 000F5D  
              __end_of_direccion_rx 0806                __end_of_direccion_tx 080B  
                            _RCREG1 000FAE                              _RCSTA1 000FAB  
                            _OSCCON 000FD3                              _PLLRDY 007E97  
                            _SPBRG1 000FAF                    ?_CCP2_Initialize 0040  
                            _TXREG1 000FAD                              _TXSTA1 000FAC  
                   _nrf2401_comando 0AD0                              _datorx 001E  
                  __end_of_flush_TX 0AF6                              clear_0 0A34  
                            clear_1 0A40                              isa$std 000001  
                      __mediumconst 0000                              tblptrh 000FF7  
                            tblptrl 000FF6                              tblptru 000FF8  
                 _SYSTEM_Initialize 0AF6                          __accesstop 0060  
           __end_of__initialization 0A46                nrF2401_init_TX@canal 0048  
                      ?_spi_s_write 0040                  ?_SYSTEM_Initialize 0040  
                     ___rparam_used 000001                  nrf2401_write@valor 0042  
                    __pcstackCOMRAM 0040                 ??_SYSTEM_Initialize 0040  
              __size_of_flush_TX_RX 0018                    ?_nrF2401_init_TX 0040  
         __end_of_SYSTEM_Initialize 0B08                          __pbssBANK0 0060  
           __end_of_nrf2401_comando 0AE4               __end_of_nrf2401_envia 0A00  
            nrf2401_comando@comando 0042               __end_of_nrf2401_write 0A8C  
                           _CCP2CON 000F97             __size_of_ADC_Initialize 0016  
                           _OSCCON2 000FD2            ?_nrf2401_direccion_TX_RX 0042  
                           _OSCTUNE 000F9B                             _SPBRGH1 000FB0  
     nrf2401_direccion_TX_RX@cont_s 0047                           ?_flush_TX 0040  
              _ADC_InterruptHandler 0015                             __Hparam 0000  
                           __Lparam 0000                        __psmallconst 0800  
                      _direccion_rx 0801                        _direccion_tx 0806  
                           __pcinit 0A2E                             __ramtop 0800  
                           __ptext0 081C                             _flag_rx 001D  
                           __ptext1 0AA4                             __ptext2 09CA  
                           __ptext3 0AE4                             __ptext4 08D4  
                           __ptext5 0984                             __ptext6 0A8C  
                           __ptext7 0A70                             __ptext8 0AD0  
                           __ptext9 093C                    spi_s_write@dato_ 0040  
             _OSCILLATOR_Initialize 0A50            ??_PIN_MANAGER_Initialize 0040  
                           _procesa 0060                             _puntero 001F  
        __size_of_SYSTEM_Initialize 0012   nrf2401_direccion_TX_RX@direccion_ 0042  
              end_of_initialization 0A46                          ??_flush_TX 0044  
                     __Lmediumconst 0000         _EUSART1_OverrunErrorHandler 0019  
                  ?_nrf2401_comando 0040                __size_of_spi_s_write 0048  
                           postinc0 000FEE                           _PORTAbits 000F80  
                         _PORTBbits 000F81                          _spi_s_init 0AA4  
                         _TRISAbits 000F92                           _TRISBbits 000F93  
                         _TRISCbits 000F94            __size_of_CCP2_Initialize 000E  
                    _ADC_Initialize 0ABA              ?_OSCILLATOR_Initialize 0040  
               start_initialization 0A2E     __size_of_PIN_MANAGER_Initialize 002E  
                     ??_flush_TX_RX 0044              __end_of_ADC_Initialize 0AD0  
                       ?_spi_s_init 0040                         __pbssCOMRAM 0001  
          __size_of_nrF2401_init_TX 0068                   __size_of_flush_TX 0012  
  __size_of_nrf2401_direccion_TX_RX 0046              _PIN_MANAGER_Initialize 0A00  
                       _dato_serial 0020                     ?_ADC_Initialize 0040  
               __end_of_flush_TX_RX 0AA4                         __smallconst 0800  
                 ??_CCP2_Initialize 0040     nrf2401_direccion_TX_RX@registro 0044  
                          _BAUDCON1 000FB8  _EUSART1_DefaultOverrunErrorHandler 000000  
              _EUSART1_ErrorHandler 0017              __size_of_nrf2401_envia 0036  
            __size_of_nrf2401_write 001C                            _LATBbits 000F8A  
                          _LATCbits 000F8B                 __size_of_spi_s_init 0016  
                          _PIR1bits 000F9E                          _ADCON0bits 000FC2  
                       _INTCON2bits 000FF1                nrf2401_envia@dato_tx 0044  
                     ??_spi_s_write 0040                            __Hrparam 0000  
                 ??_nrF2401_init_TX 0048                            __Lrparam 0000  
                       _flush_TX_RX 0A8C                       _nrf2401_envia 09CA  
                     _nrf2401_write 0A70             ??_OSCILLATOR_Initialize 0040  
          __size_of_nrf2401_comando 0014         _EUSART1_DefaultErrorHandler 000000  
                          __ptext10 0AF6                            __ptext11 0A00  
                          __ptext12 0A50                            __ptext13 0B08  
                          __ptext14 0ABA                            _flush_TX 0AE4  
                 spi_s_write@cont_s 0041                       __size_of_main 00B8  
           _nrf2401_direccion_TX_RX 0984                      ?_nrf2401_envia 0040  
                          isa$xinst 000000                      ?_nrf2401_write 0042  
               __end_of_spi_s_write 0984         _EUSART1_FramingErrorHandler 001B  
                      ??_spi_s_init 0040                          _INTCONbits 000FF2  
           ?_PIN_MANAGER_Initialize 0040                          _RCSTA1bits 000FAB  
                  ??_ADC_Initialize 0040                  __end_of_spi_s_init 0ABA  
                   _CCP2_Initialize 0B08                  _eusart1RxLastError 0021  
                 ??_nrf2401_comando 0042           ??_nrf2401_direccion_TX_RX 0045  
    __end_of_PIN_MANAGER_Initialize 0A2E                         _spi_s_write 093C  
                   ??_nrf2401_envia 0044                     ??_nrf2401_write 0043  
