

Microchip MPLAB XC8 Assembler V2.32 build 20210201212658 
                                                                                               Thu Dec 08 19:20:04 2022

Microchip MPLAB XC8 C Compiler v2.32 (Free license) build 20210201212658 Og1 
     1                           	processor	18F25K50
     2                           	fnconf	rparam,??,?,0
     3                           	pagewidth 120
     4                           	opt	flic
     5                           	psect	idataBANK0,global,class=CODE,delta=1,noexec
     6                           	psect	smallconst,global,reloc=2,class=SMALLCONST,delta=1,noexec
     7                           	psect	cinit,global,reloc=2,class=CODE,delta=1
     8                           	psect	bssCOMRAM,global,class=COMRAM,space=1,delta=1,lowdata,noexec
     9                           	psect	bssBANK0,global,class=BANK0,space=1,delta=1,lowdata,noexec
    10                           	psect	dataBANK0,global,class=BANK0,space=1,delta=1,lowdata,noexec
    11                           	psect	cstackBANK0,global,class=BANK0,space=1,delta=1,lowdata,noexec
    12                           	psect	cstackCOMRAM,global,class=COMRAM,space=1,delta=1,lowdata,noexec
    13                           	psect	text0,global,reloc=2,class=CODE,delta=1
    14                           	psect	text1,global,reloc=2,class=CODE,delta=1
    15                           	psect	text2,global,reloc=2,class=CODE,delta=1
    16                           	psect	text3,global,reloc=2,class=CODE,delta=1,group=1
    17                           	psect	text4,global,reloc=2,class=CODE,delta=1,group=1
    18                           	psect	text5,global,reloc=2,class=CODE,delta=1,group=1
    19                           	psect	text6,global,reloc=2,class=CODE,delta=1,group=1
    20                           	psect	text7,global,reloc=2,class=CODE,delta=1,group=1
    21                           	psect	text8,global,reloc=2,class=CODE,delta=1,group=1
    22                           	psect	text9,global,reloc=2,class=CODE,delta=1
    23                           	psect	text10,global,reloc=2,class=CODE,delta=1
    24                           	psect	text11,global,reloc=2,class=CODE,delta=1
    25                           	psect	text12,global,reloc=2,class=CODE,delta=1
    26                           	psect	text13,global,reloc=2,class=CODE,delta=1
    27                           	psect	text14,global,reloc=2,class=CODE,delta=1
    28                           	psect	text15,global,reloc=2,class=CODE,delta=1
    29                           	psect	text16,global,reloc=2,class=CODE,delta=1
    30                           	psect	text17,global,reloc=2,class=CODE,delta=1
    31                           	psect	text18,global,reloc=2,class=CODE,delta=1
    32                           	psect	text19,global,reloc=2,class=CODE,delta=1
    33                           	psect	text20,global,reloc=2,class=CODE,delta=1
    34                           	psect	text21,global,reloc=2,class=CODE,delta=1
    35                           	psect	text22,global,reloc=2,class=CODE,delta=1
    36                           	psect	text23,global,reloc=2,class=CODE,delta=1
    37                           	psect	text24,global,reloc=2,class=CODE,delta=1
    38                           	psect	text25,global,reloc=2,class=CODE,delta=1
    39                           	psect	text26,global,reloc=2,class=CODE,delta=1
    40                           	psect	text27,global,reloc=2,class=CODE,delta=1
    41                           	psect	text28,global,reloc=2,class=CODE,delta=1
    42                           	psect	text29,global,reloc=2,class=CODE,delta=1
    43                           	psect	text30,global,reloc=2,class=CODE,delta=1
    44                           	psect	text31,global,reloc=2,class=CODE,delta=1
    45                           	psect	text32,global,reloc=2,class=CODE,delta=1
    46                           	psect	text33,global,reloc=2,class=CODE,delta=1
    47                           	psect	intcode,global,reloc=2,class=CODE,delta=1
    48                           	psect	text35,global,reloc=2,class=CODE,delta=1
    49                           	psect	text36,global,reloc=2,class=CODE,delta=1
    50                           	psect	text37,global,reloc=2,class=CODE,delta=1
    51                           	psect	text38,global,reloc=2,class=CODE,delta=1
    52                           	psect	intsave_regs,global,class=BIGRAM,space=1,delta=1,noexec
    53                           	psect	text39,global,reloc=2,class=CODE,delta=1
    54                           	psect	rparam,global,class=COMRAM,space=1,delta=1,noexec
    55                           	psect	temp,global,ovrld,common,class=COMRAM,space=1,delta=1
    56                           	psect	idloc,global,abs,ovrld,class=IDLOC,space=5,delta=1,noexec
    57                           	psect	config,global,abs,ovrld,class=CONFIG,space=4,delta=1,noexec
    58  0000                     
    59                           ; Version 2.40
    60                           ; Generated 17/11/2021 GMT
    61                           ; 
    62                           ; Copyright © 2021, Microchip Technology Inc. and its subsidiaries ("Microchip")
    63                           ; All rights reserved.
    64                           ; 
    65                           ; This software is developed by Microchip Technology Inc. and its subsidiaries ("Microch
      +                          ip").
    66                           ; 
    67                           ; Redistribution and use in source and binary forms, with or without modification, are
    68                           ; permitted provided that the following conditions are met:
    69                           ; 
    70                           ;     1. Redistributions of source code must retain the above copyright notice, this lis
      +                          t of
    71                           ;        conditions and the following disclaimer.
    72                           ; 
    73                           ;     2. Redistributions in binary form must reproduce the above copyright notice, this 
      +                          list
    74                           ;        of conditions and the following disclaimer in the documentation and/or other
    75                           ;        materials provided with the distribution. Publication is not required when
    76                           ;        this file is used in an embedded application.
    77                           ; 
    78                           ;     3. Microchip's name may not be used to endorse or promote products derived from th
      +                          is
    79                           ;        software without specific prior written permission.
    80                           ; 
    81                           ; THIS SOFTWARE IS PROVIDED BY MICROCHIP "AS IS" AND ANY EXPRESS OR IMPLIED WARRANTIES,
    82                           ; INCLUDING, BUT NOT LIMITED TO, THE IMPLIED WARRANTIES OF MERCHANTABILITY AND FITNESS F
      +                          OR
    83                           ; PURPOSE ARE DISCLAIMED.  IN NO EVENT SHALL MICROCHIP BE LIABLE FOR ANY DIRECT, INDIREC
      +                          T,
    84                           ; INCIDENTAL, SPECIAL, EXEMPLARY, OR CONSEQUENTIAL DAMAGES (INCLUDING BUT NOT LIMITED TO
    85                           ; PROCUREMENT OF SUBSTITUTE GOODS OR SERVICES; LOSS OF USE, DATA OR PROFITS; OR BUSINESS
    86                           ; INTERRUPTION) HOWSOEVER CAUSED AND ON ANY THEORY OF LIABILITY, WHETHER IN CONTRACT, ST
      +                          RICT
    87                           ; LIABILITY, OR TORT (INCLUDING NEGLIGENCE OR OTHERWISE) ARISING IN ANY WAY OUT OF THE U
      +                          SE OF
    88                           ; THIS SOFTWARE, EVEN IF ADVISED OF THE POSSIBILITY OF SUCH DAMAGE.
    89                           ; 
    90                           ; 
    91                           ; Code-generator required, PIC18F25K50 Definitions
    92                           ; 
    93                           ; SFR Addresses
    94  0000                     
    95 ;; Function _EUSART1_DefaultFramingErrorHandler is unused but had its address taken
    96  0000                     
    97 ;; Function _EUSART1_DefaultOverrunErrorHandler is unused but had its address taken
    98  0000                     
    99 ;; Function _EUSART1_DefaultErrorHandler is unused but had its address taken
   100  0000                     
   101                           	psect	idataBANK0
   102  00218E                     __pidataBANK0:
   103                           	callstack 0
   104                           
   105                           ;initializer for _offset
   106                           ;main.c: 74: unsigned char dato_serial = 0;;main.c: 82: unsigned int valor = 0;;main.c: 
      +                          83: double voltaje = 0.0;;main.c: 84: double sensibilidad = 0.282;;main.c: 85: double re
      +                          lacion = 0.100;;main.c: 86: double I = 0.0;;main.c: 87: double I_max = 0.0;;main.c: 88: 
      +                          double I_min = 0.0;;main.c: 89: double I_rms = 0.0;;main.c: 90: double offset = 0.100;
   107  00218E  CCCD               	dw	52429
   108  002190  3DCC               	dw	15820
   109                           
   110                           ;initializer for _relacion
   111                           ;main.c: 74: unsigned char dato_serial = 0;;main.c: 82: unsigned int valor = 0;;main.c: 
      +                          83: double voltaje = 0.0;;main.c: 84: double sensibilidad = 0.282;;main.c: 85: double re
      +                          lacion = 0.100;
   112  002192  CCCD               	dw	52429
   113  002194  3DCC               	dw	15820
   114                           
   115                           ;initializer for _sensibilidad
   116                           ;main.c: 74: unsigned char dato_serial = 0;;main.c: 82: unsigned int valor = 0;;main.c: 
      +                          83: double voltaje = 0.0;;main.c: 84: double sensibilidad = 0.282;
   117  002196  624E               	dw	25166
   118  002198  3E90               	dw	16016
   119                           
   120                           	psect	smallconst
   121  000800                     __psmallconst:
   122                           	callstack 0
   123  000800  00                 	db	0
   124  000801                     _direccion_rx:
   125                           	callstack 0
   126  000801  11                 	db	17
   127  000802  11                 	db	17
   128  000803  11                 	db	17
   129  000804  11                 	db	17
   130  000805  11                 	db	17
   131  000806                     __end_of_direccion_rx:
   132                           	callstack 0
   133  000806  3840               	dw	14400
   134  000808  0000               	dw	0
   135  00080A                     __end_of_intervalo:
   136                           	callstack 0
   137  00080A                     _direccion_tx:
   138                           	callstack 0
   139  00080A  11                 	db	17
   140  00080B  11                 	db	17
   141  00080C  11                 	db	17
   142  00080D  11                 	db	17
   143  00080E  11                 	db	17
   144  00080F                     __end_of_direccion_tx:
   145                           	callstack 0
   146  0000                     _ANSELA	set	3931
   147  0000                     _ANSELB	set	3932
   148  0000                     _ANSELC	set	3933
   149  0000                     _TMR1	set	4046
   150  0000                     _T1GCONbits	set	4044
   151  0000                     _T1CONbits	set	4045
   152  0000                     _T1CON	set	4045
   153  0000                     _TMR1L	set	4046
   154  0000                     _TMR1H	set	4047
   155  0000                     _T1GCON	set	4044
   156  0000                     _PIE1bits	set	3997
   157  0000                     _RCONbits	set	4048
   158  0000                     _PORTBbits	set	3969
   159  0000                     _LATCbits	set	3979
   160  0000                     _LATBbits	set	3978
   161  0000                     _TRISBbits	set	3987
   162  0000                     _TRISCbits	set	3988
   163  0000                     _ADCON0bits	set	4034
   164  0000                     _ADCON0	set	4034
   165  0000                     _ADRESH	set	4036
   166  0000                     _ADRESL	set	4035
   167  0000                     _ADCON2	set	4032
   168  0000                     _ADCON1	set	4033
   169  0000                     _CCPR2H	set	3985
   170  0000                     _CCPR2L	set	3984
   171  0000                     _CCP2CON	set	3991
   172  0000                     _INTCONbits	set	4082
   173  0000                     _INTCON2bits	set	4081
   174  0000                     _WPUB	set	3973
   175  0000                     _TRISC	set	3988
   176  0000                     _TRISB	set	3987
   177  0000                     _TRISA	set	3986
   178  0000                     _LATC	set	3979
   179  0000                     _LATB	set	3978
   180  0000                     _LATA	set	3977
   181  0000                     _ACTCON	set	4021
   182  0000                     _OSCTUNE	set	3995
   183  0000                     _OSCCON2	set	4050
   184  0000                     _OSCCON	set	4051
   185  0000                     _TXREG1	set	4013
   186  0000                     _RCREG1	set	4014
   187  0000                     _RCSTA1bits	set	4011
   188  0000                     _TXSTA1bits	set	4012
   189  0000                     _PIR1bits	set	3998
   190  0000                     _SPBRGH1	set	4016
   191  0000                     _SPBRG1	set	4015
   192  0000                     _TXSTA1	set	4012
   193  0000                     _RCSTA1	set	4011
   194  0000                     _BAUDCON1	set	4024
   195  0000                     _LATA5	set	31821
   196  0000                     _PLLRDY	set	32407
   197  00080F  00                 	db	0	; dummy byte at the end
   198  0000                     
   199                           ; #config settings
   200                           
   201                           	psect	cinit
   202  001E34                     __pcinit:
   203                           	callstack 0
   204  001E34                     start_initialization:
   205                           	callstack 0
   206  001E34                     __initialization:
   207                           	callstack 0
   208                           
   209                           ; Initialize objects allocated to BANK0 (12 bytes)
   210                           ; load TBLPTR registers with __pidataBANK0
   211  001E34  0E8E               	movlw	low __pidataBANK0
   212  001E36  6EF6               	movwf	tblptrl,c
   213  001E38  0E21               	movlw	high __pidataBANK0
   214  001E3A  6EF7               	movwf	tblptrh,c
   215  001E3C  0E00               	movlw	low (__pidataBANK0 shr (0+16))
   216  001E3E  6EF8               	movwf	tblptru,c
   217  001E40  EE00  F094         	lfsr	0,__pdataBANK0
   218  001E44  EE10 F00C          	lfsr	1,12
   219  001E48                     copy_data0:
   220  001E48  0009               	tblrd		*+
   221  001E4A  CFF5 FFEE          	movff	tablat,postinc0
   222  001E4E  50E5               	movf	postdec1,w,c
   223  001E50  50E1               	movf	fsr1l,w,c
   224  001E52  E1FA               	bnz	copy_data0
   225                           
   226                           ; Clear objects allocated to BANK0 (52 bytes)
   227  001E54  EE00  F060         	lfsr	0,__pbssBANK0
   228  001E58  0E34               	movlw	52
   229  001E5A                     clear_0:
   230  001E5A  6AEE               	clrf	postinc0,c
   231  001E5C  06E8               	decf	wreg,f,c
   232  001E5E  E1FD               	bnz	clear_0
   233                           
   234                           ; Clear objects allocated to COMRAM (20 bytes)
   235  001E60  EE00  F047         	lfsr	0,__pbssCOMRAM
   236  001E64  0E14               	movlw	20
   237  001E66                     clear_1:
   238  001E66  6AEE               	clrf	postinc0,c
   239  001E68  06E8               	decf	wreg,f,c
   240  001E6A  E1FD               	bnz	clear_1
   241  001E6C                     end_of_initialization:
   242                           	callstack 0
   243  001E6C                     __end_of__initialization:
   244                           	callstack 0
   245  001E6C  905B               	bcf	int$flags,0,c	;clear compiler interrupt flag (level 1)
   246  001E6E  925B               	bcf	int$flags,1,c	;clear compiler interrupt flag (level 2)
   247  001E70  0E00               	movlw	low (__Lmediumconst shr (0+16))
   248  001E72  6EF8               	movwf	tblptru,c
   249  001E74  0100               	movlb	0
   250  001E76  EF3A  F00E         	goto	_main	;jump to C main() function
   251                           
   252                           	psect	bssCOMRAM
   253  000047                     __pbssCOMRAM:
   254                           	callstack 0
   255  000047                     _I:
   256                           	callstack 0
   257  000047                     	ds	4
   258  00004B                     TMR1_ISR@CountCallBack:
   259                           	callstack 0
   260  00004B                     	ds	2
   261  00004D                     _TMR1_InterruptHandler:
   262                           	callstack 0
   263  00004D                     	ds	2
   264  00004F                     _timer1ReloadVal:
   265                           	callstack 0
   266  00004F                     	ds	2
   267  000051                     _l:
   268                           	callstack 0
   269  000051                     	ds	2
   270  000053                     _k:
   271                           	callstack 0
   272  000053                     	ds	2
   273  000055                     _j:
   274                           	callstack 0
   275  000055                     	ds	2
   276  000057                     _i:
   277                           	callstack 0
   278  000057                     	ds	2
   279  000059                     _dato_serial:
   280                           	callstack 0
   281  000059                     	ds	1
   282  00005A                     _eusart1RxLastError:
   283                           	callstack 0
   284  00005A                     	ds	1
   285                           
   286                           	psect	bssBANK0
   287  000060                     __pbssBANK0:
   288                           	callstack 0
   289  000060                     _valor_string:
   290                           	callstack 0
   291  000060                     	ds	14
   292  00006E                     _previousMillis:
   293                           	callstack 0
   294  00006E                     	ds	4
   295  000072                     _currentSeg:
   296                           	callstack 0
   297  000072                     	ds	4
   298  000076                     _conteo:
   299                           	callstack 0
   300  000076                     	ds	4
   301  00007A                     _I_rms:
   302                           	callstack 0
   303  00007A                     	ds	4
   304  00007E                     _I_min:
   305                           	callstack 0
   306  00007E                     	ds	4
   307  000082                     _I_max:
   308                           	callstack 0
   309  000082                     	ds	4
   310  000086                     _voltaje:
   311                           	callstack 0
   312  000086                     	ds	4
   313  00008A                     _valor:
   314                           	callstack 0
   315  00008A                     	ds	2
   316  00008C                     _ADC_InterruptHandler:
   317                           	callstack 0
   318  00008C                     	ds	2
   319  00008E                     _EUSART1_ErrorHandler:
   320                           	callstack 0
   321  00008E                     	ds	2
   322  000090                     _EUSART1_OverrunErrorHandler:
   323                           	callstack 0
   324  000090                     	ds	2
   325  000092                     _EUSART1_FramingErrorHandler:
   326                           	callstack 0
   327  000092                     	ds	2
   328                           
   329                           	psect	dataBANK0
   330  000094                     __pdataBANK0:
   331                           	callstack 0
   332  000094                     _offset:
   333                           	callstack 0
   334  000094                     	ds	4
   335  000098                     _relacion:
   336                           	callstack 0
   337  000098                     	ds	4
   338  00009C                     _sensibilidad:
   339                           	callstack 0
   340  00009C                     	ds	4
   341                           
   342                           	psect	cstackBANK0
   343  0000A0                     __pcstackBANK0:
   344                           	callstack 0
   345  0000A0                     _trip_protec_current$2118:
   346                           	callstack 0
   347                           
   348                           ; 4 bytes @ 0x0
   349  0000A0                     	ds	4
   350                           
   351                           	psect	cstackCOMRAM
   352  000001                     __pcstackCOMRAM:
   353                           	callstack 0
   354  000001                     TMR1_WriteTimer@timerVal:
   355                           	callstack 0
   356                           
   357                           ; 2 bytes @ 0x0
   358  000001                     	ds	2
   359  000003                     ??_INTERRUPT_InterruptManager:
   360  000003                     
   361                           ; 1 bytes @ 0x2
   362  000003                     	ds	2
   363  000005                     ?_ADC_GetConversion:
   364                           	callstack 0
   365  000005                     ?___fladd:
   366                           	callstack 0
   367  000005                     ?___xxtofl:
   368                           	callstack 0
   369  000005                     spi_s_read@dato_:
   370                           	callstack 0
   371  000005                     spi_s_write@dato_:
   372                           	callstack 0
   373  000005                     EUSART1_SetFramingErrorHandler@interruptHandler:
   374                           	callstack 0
   375  000005                     EUSART1_SetOverrunErrorHandler@interruptHandler:
   376                           	callstack 0
   377  000005                     EUSART1_SetErrorHandler@interruptHandler:
   378                           	callstack 0
   379  000005                     TMR1_SetInterruptHandler@InterruptHandler:
   380                           	callstack 0
   381  000005                     ___flge@ff1:
   382                           	callstack 0
   383  000005                     ___fladd@b:
   384                           	callstack 0
   385  000005                     ___xxtofl@val:
   386                           	callstack 0
   387                           
   388                           ; 4 bytes @ 0x4
   389  000005                     	ds	1
   390  000006                     spi_s_read@cont_s:
   391                           	callstack 0
   392  000006                     spi_s_write@cont_s:
   393                           	callstack 0
   394                           
   395                           ; 1 bytes @ 0x5
   396  000006                     	ds	1
   397  000007                     ??_ADC_GetConversion:
   398  000007                     nrf2401_write@valor:
   399                           	callstack 0
   400  000007                     nrf2401_comando@comando:
   401                           	callstack 0
   402  000007                     nrf2401_read@reg:
   403                           	callstack 0
   404  000007                     nrf2401_recibe@valor_:
   405                           	callstack 0
   406  000007                     nrf2401_direccion_TX_RX@direccion_:
   407                           	callstack 0
   408                           
   409                           ; 2 bytes @ 0x6
   410  000007                     	ds	1
   411  000008                     nrf2401_write@reg:
   412                           	callstack 0
   413  000008                     nrf2401_read@dato_:
   414                           	callstack 0
   415                           
   416                           ; 1 bytes @ 0x7
   417  000008                     	ds	1
   418  000009                     ??___xxtofl:
   419  000009                     ADC_GetConversion@channel:
   420                           	callstack 0
   421  000009                     nrf2401_direccion_TX_RX@registro:
   422                           	callstack 0
   423  000009                     ___flge@ff2:
   424                           	callstack 0
   425  000009                     ___fladd@a:
   426                           	callstack 0
   427                           
   428                           ; 4 bytes @ 0x8
   429  000009                     	ds	1
   430  00000A                     ??_nrf2401_direccion_TX_RX:
   431                           
   432                           ; 1 bytes @ 0x9
   433  00000A                     	ds	2
   434  00000C                     nrf2401_direccion_TX_RX@cont_s:
   435                           	callstack 0
   436                           
   437                           ; 1 bytes @ 0xB
   438  00000C                     	ds	1
   439  00000D                     ??___fladd:
   440  00000D                     ??___flge:
   441  00000D                     nrF2401_init_RX@canal:
   442                           	callstack 0
   443  00000D                     ___xxtofl@sign:
   444                           	callstack 0
   445                           
   446                           ; 1 bytes @ 0xC
   447  00000D                     	ds	1
   448  00000E                     ___xxtofl@exp:
   449                           	callstack 0
   450                           
   451                           ; 1 bytes @ 0xD
   452  00000E                     	ds	1
   453  00000F                     ___xxtofl@arg:
   454                           	callstack 0
   455                           
   456                           ; 4 bytes @ 0xE
   457  00000F                     	ds	2
   458  000011                     ___fladd@signs:
   459                           	callstack 0
   460                           
   461                           ; 1 bytes @ 0x10
   462  000011                     	ds	1
   463  000012                     ___fladd@aexp:
   464                           	callstack 0
   465                           
   466                           ; 1 bytes @ 0x11
   467  000012                     	ds	1
   468  000013                     ?___flmul:
   469                           	callstack 0
   470  000013                     ___fladd@bexp:
   471                           	callstack 0
   472  000013                     ___flmul@b:
   473                           	callstack 0
   474                           
   475                           ; 4 bytes @ 0x12
   476  000013                     	ds	1
   477  000014                     ___fladd@grs:
   478                           	callstack 0
   479                           
   480                           ; 1 bytes @ 0x13
   481  000014                     	ds	1
   482  000015                     ?___flsub:
   483                           	callstack 0
   484  000015                     ___flsub@b:
   485                           	callstack 0
   486                           
   487                           ; 4 bytes @ 0x14
   488  000015                     	ds	2
   489  000017                     ___flmul@a:
   490                           	callstack 0
   491                           
   492                           ; 4 bytes @ 0x16
   493  000017                     	ds	2
   494  000019                     ___flsub@a:
   495                           	callstack 0
   496                           
   497                           ; 4 bytes @ 0x18
   498  000019                     	ds	2
   499  00001B                     ??___flmul:
   500                           
   501                           ; 1 bytes @ 0x1A
   502  00001B                     	ds	2
   503  00001D                     ?___fldiv:
   504                           	callstack 0
   505  00001D                     ___fldiv@b:
   506                           	callstack 0
   507                           
   508                           ; 4 bytes @ 0x1C
   509  00001D                     	ds	2
   510  00001F                     ___flmul@sign:
   511                           	callstack 0
   512                           
   513                           ; 1 bytes @ 0x1E
   514  00001F                     	ds	1
   515  000020                     ___flmul@aexp:
   516                           	callstack 0
   517                           
   518                           ; 1 bytes @ 0x1F
   519  000020                     	ds	1
   520  000021                     ___fldiv@a:
   521                           	callstack 0
   522  000021                     ___flmul@grs:
   523                           	callstack 0
   524                           
   525                           ; 4 bytes @ 0x20
   526  000021                     	ds	4
   527  000025                     ??___fldiv:
   528  000025                     ___flmul@bexp:
   529                           	callstack 0
   530                           
   531                           ; 1 bytes @ 0x24
   532  000025                     	ds	1
   533  000026                     ___flmul@prod:
   534                           	callstack 0
   535                           
   536                           ; 4 bytes @ 0x25
   537  000026                     	ds	3
   538  000029                     ___fldiv@rem:
   539                           	callstack 0
   540                           
   541                           ; 4 bytes @ 0x28
   542  000029                     	ds	1
   543  00002A                     ___flmul@temp:
   544                           	callstack 0
   545                           
   546                           ; 2 bytes @ 0x29
   547  00002A                     	ds	3
   548  00002D                     ___fldiv@sign:
   549                           	callstack 0
   550                           
   551                           ; 1 bytes @ 0x2C
   552  00002D                     	ds	1
   553  00002E                     ___fldiv@new_exp:
   554                           	callstack 0
   555                           
   556                           ; 2 bytes @ 0x2D
   557  00002E                     	ds	2
   558  000030                     ___fldiv@grs:
   559                           	callstack 0
   560                           
   561                           ; 4 bytes @ 0x2F
   562  000030                     	ds	4
   563  000034                     ___fldiv@bexp:
   564                           	callstack 0
   565                           
   566                           ; 1 bytes @ 0x33
   567  000034                     	ds	1
   568  000035                     ___fldiv@aexp:
   569                           	callstack 0
   570                           
   571                           ; 1 bytes @ 0x34
   572  000035                     	ds	1
   573  000036                     ?_get_corriente_AC:
   574                           	callstack 0
   575  000036                     get_corriente_AC@n_muestras:
   576                           	callstack 0
   577                           
   578                           ; 2 bytes @ 0x35
   579  000036                     	ds	4
   580  00003A                     ??_get_corriente_AC:
   581                           
   582                           ; 1 bytes @ 0x39
   583  00003A                     	ds	1
   584  00003B                     get_corriente_AC@i:
   585                           	callstack 0
   586                           
   587                           ; 2 bytes @ 0x3A
   588  00003B                     	ds	2
   589  00003D                     get_corriente_AC@corriente:
   590                           	callstack 0
   591                           
   592                           ; 4 bytes @ 0x3C
   593  00003D                     	ds	4
   594  000041                     ??_trip_protec_current:
   595                           
   596                           ; 1 bytes @ 0x40
   597  000041                     	ds	4
   598  000045                     ??_main:
   599                           
   600                           ; 1 bytes @ 0x44
   601  000045                     	ds	2
   602                           
   603 ;;
   604 ;;Main: autosize = 0, tempsize = 2, incstack = 0, save=0
   605 ;;
   606 ;; *************** function _main *****************
   607 ;; Defined at:
   608 ;;		line 252 in file "main.c"
   609 ;; Parameters:    Size  Location     Type
   610 ;;		None
   611 ;; Auto vars:     Size  Location     Type
   612 ;;		None
   613 ;; Return value:  Size  Location     Type
   614 ;;                  1    wreg      void 
   615 ;; Registers used:
   616 ;;		wreg, status,2, status,0, tblptrl, tblptrh, tblptru, prodl, prodh, cstack
   617 ;; Tracked objects:
   618 ;;		On entry : 0/0
   619 ;;		On exit  : 0/0
   620 ;;		Unchanged: 0/0
   621 ;; Data sizes:     COMRAM   BANK0   BANK1   BANK2   BANK3   BANK4   BANK5   BANK6   BANK7
   622 ;;      Params:         0       0       0       0       0       0       0       0       0
   623 ;;      Locals:         0       0       0       0       0       0       0       0       0
   624 ;;      Temps:          2       0       0       0       0       0       0       0       0
   625 ;;      Totals:         2       0       0       0       0       0       0       0       0
   626 ;;Total ram usage:        2 bytes
   627 ;; Hardware stack levels required when called: 8
   628 ;; This function calls:
   629 ;;		_SYSTEM_Initialize
   630 ;;		_nrF2401_init_RX
   631 ;;		_nrf2401_haydatos
   632 ;;		_nrf2401_recibe
   633 ;;		_spi_s_init
   634 ;;		_trip_protec_current
   635 ;; This function is called by:
   636 ;;		Startup code after reset
   637 ;; This function uses a non-reentrant model
   638 ;;
   639                           
   640                           	psect	text0
   641  001C74                     __ptext0:
   642                           	callstack 0
   643  001C74                     _main:
   644                           	callstack 23
   645  001C74                     
   646                           ;main.c: 255:     SYSTEM_Initialize();
   647  001C74  EC5C  F010         	call	_SYSTEM_Initialize	;wreg free
   648  001C78                     
   649                           ;main.c: 263:     (INTCONbits.GIE = 1);
   650  001C78  8EF2               	bsf	242,7,c	;volatile
   651  001C7A                     
   652                           ;main.c: 269:     (INTCONbits.PEIE = 1);
   653  001C7A  8CF2               	bsf	242,6,c	;volatile
   654  001C7C                     
   655                           ;main.c: 274:     ANSELA = 0b00000111;
   656  001C7C  0E07               	movlw	7
   657  001C7E  010F               	movlb	15	; () banked
   658  001C80  6F5B               	movwf	91,b	;volatile
   659  001C82                     
   660                           ; BSR set to: 15
   661                           ;main.c: 275:     ANSELB = 0b00000000;
   662  001C82  0E00               	movlw	0
   663  001C84  6F5C               	movwf	92,b	;volatile
   664  001C86                     
   665                           ; BSR set to: 15
   666                           ;main.c: 276:     ANSELC = 0x00;
   667  001C86  0E00               	movlw	0
   668  001C88  6F5D               	movwf	93,b	;volatile
   669  001C8A                     
   670                           ; BSR set to: 15
   671                           ;main.c: 284:     spi_s_init();
   672  001C8A  ECA0  F010         	call	_spi_s_init	;wreg free
   673  001C8E                     
   674                           ;main.c: 286:     nrF2401_init_RX(17);
   675  001C8E  0E11               	movlw	17
   676  001C90  EC94  F00E         	call	_nrF2401_init_RX
   677  001C94                     
   678                           ;main.c: 290:     _delay((unsigned long)((2000)*(48000000/4000.0)));
   679  001C94  0E7A               	movlw	122
   680  001C96  6E46               	movwf	(??_main+1)^0,c
   681  001C98  0EC1               	movlw	193
   682  001C9A  6E45               	movwf	??_main^0,c
   683  001C9C  0E82               	movlw	130
   684  001C9E                     u3807:
   685  001C9E  2EE8               	decfsz	wreg,f,c
   686  001CA0  D7FE               	bra	u3807
   687  001CA2  2E45               	decfsz	??_main^0,f,c
   688  001CA4  D7FC               	bra	u3807
   689  001CA6  2E46               	decfsz	(??_main+1)^0,f,c
   690  001CA8  D7FA               	bra	u3807
   691  001CAA                     
   692                           ;main.c: 291:     LATA5 = 1;
   693  001CAA  8A89               	bsf	3977,5,c	;volatile
   694  001CAC                     
   695                           ;main.c: 292:     _delay((unsigned long)((3000)*(48000000/4000.0)));
   696  001CAC  0EB7               	movlw	183
   697  001CAE  6E46               	movwf	(??_main+1)^0,c
   698  001CB0  0EA1               	movlw	161
   699  001CB2  6E45               	movwf	??_main^0,c
   700  001CB4  0EC4               	movlw	196
   701  001CB6                     u3817:
   702  001CB6  2EE8               	decfsz	wreg,f,c
   703  001CB8  D7FE               	bra	u3817
   704  001CBA  2E45               	decfsz	??_main^0,f,c
   705  001CBC  D7FC               	bra	u3817
   706  001CBE  2E46               	decfsz	(??_main+1)^0,f,c
   707  001CC0  D7FA               	bra	u3817
   708  001CC2                     l3704:
   709                           
   710                           ;main.c: 295:     {;main.c: 302:         trip_protec_current();
   711  001CC2  EC4A  F00A         	call	_trip_protec_current	;wreg free
   712  001CC6                     
   713                           ;main.c: 304:         if(nrf2401_haydatos() == 1)
   714  001CC6  EC4D  F010         	call	_nrf2401_haydatos	;wreg free
   715  001CCA  06E8               	decf	wreg,f,c
   716  001CCC  A4D8               	btfss	status,2,c
   717  001CCE  EF6B  F00E         	goto	u3781
   718  001CD2  EF6D  F00E         	goto	u3780
   719  001CD6                     u3781:
   720  001CD6  EF84  F00E         	goto	l396
   721  001CDA                     u3780:
   722  001CDA                     
   723                           ;main.c: 305:         {;main.c: 306:             dato_serial = nrf2401_recibe();
   724  001CDA  EC87  F010         	call	_nrf2401_recibe	;wreg free
   725  001CDE  6E59               	movwf	_dato_serial^0,c
   726  001CE0                     
   727                           ;main.c: 307:             if (dato_serial == 1)
   728  001CE0  0459               	decf	_dato_serial^0,w,c
   729  001CE2  A4D8               	btfss	status,2,c
   730  001CE4  EF76  F00E         	goto	u3791
   731  001CE8  EF78  F00E         	goto	u3790
   732  001CEC                     u3791:
   733  001CEC  EF84  F00E         	goto	l396
   734  001CF0                     u3790:
   735  001CF0                     
   736                           ;main.c: 308:             {;main.c: 309:                 LATA5 = 1;
   737  001CF0  8A89               	bsf	3977,5,c	;volatile
   738  001CF2                     
   739                           ;main.c: 310:                 _delay((unsigned long)((3000)*(48000000/4000.0)));
   740  001CF2  0EB7               	movlw	183
   741  001CF4  6E46               	movwf	(??_main+1)^0,c
   742  001CF6  0EA1               	movlw	161
   743  001CF8  6E45               	movwf	??_main^0,c
   744  001CFA  0EC4               	movlw	196
   745  001CFC                     u3827:
   746  001CFC  2EE8               	decfsz	wreg,f,c
   747  001CFE  D7FE               	bra	u3827
   748  001D00  2E45               	decfsz	??_main^0,f,c
   749  001D02  D7FC               	bra	u3827
   750  001D04  2E46               	decfsz	(??_main+1)^0,f,c
   751  001D06  D7FA               	bra	u3827
   752  001D08                     l396:
   753                           
   754                           ;main.c: 314:         _delay((unsigned long)((100)*(48000000/4000.0)));
   755  001D08  0E07               	movlw	7
   756  001D0A  6E46               	movwf	(??_main+1)^0,c
   757  001D0C  0E17               	movlw	23
   758  001D0E  6E45               	movwf	??_main^0,c
   759  001D10  0E6A               	movlw	106
   760  001D12                     u3837:
   761  001D12  2EE8               	decfsz	wreg,f,c
   762  001D14  D7FE               	bra	u3837
   763  001D16  2E45               	decfsz	??_main^0,f,c
   764  001D18  D7FC               	bra	u3837
   765  001D1A  2E46               	decfsz	(??_main+1)^0,f,c
   766  001D1C  D7FA               	bra	u3837
   767  001D1E  D000               	nop2	
   768  001D20  EF61  F00E         	goto	l3704
   769  001D24  EF26  F000         	goto	start
   770  001D28                     __end_of_main:
   771                           	callstack 0
   772                           
   773 ;; *************** function _trip_protec_current *****************
   774 ;; Defined at:
   775 ;;		line 196 in file "main.c"
   776 ;; Parameters:    Size  Location     Type
   777 ;;		None
   778 ;; Auto vars:     Size  Location     Type
   779 ;;		None
   780 ;; Return value:  Size  Location     Type
   781 ;;                  1    wreg      void 
   782 ;; Registers used:
   783 ;;		wreg, status,2, status,0, prodl, prodh, cstack
   784 ;; Tracked objects:
   785 ;;		On entry : 0/0
   786 ;;		On exit  : 0/0
   787 ;;		Unchanged: 0/0
   788 ;; Data sizes:     COMRAM   BANK0   BANK1   BANK2   BANK3   BANK4   BANK5   BANK6   BANK7
   789 ;;      Params:         0       0       0       0       0       0       0       0       0
   790 ;;      Locals:         0       4       0       0       0       0       0       0       0
   791 ;;      Temps:          4       0       0       0       0       0       0       0       0
   792 ;;      Totals:         4       4       0       0       0       0       0       0       0
   793 ;;Total ram usage:        8 bytes
   794 ;; Hardware stack levels used: 1
   795 ;; Hardware stack levels required when called: 7
   796 ;; This function calls:
   797 ;;		___fladd
   798 ;;		___fldiv
   799 ;;		___flge
   800 ;;		_get_corriente_AC
   801 ;; This function is called by:
   802 ;;		_main
   803 ;; This function uses a non-reentrant model
   804 ;;
   805                           
   806                           	psect	text1
   807  001494                     __ptext1:
   808                           	callstack 0
   809  001494                     _trip_protec_current:
   810                           	callstack 23
   811  001494                     
   812                           ;main.c: 198:     I = ((get_corriente_AC(2000) - offset) / relacion);
   813  001494  0E07               	movlw	7
   814  001496  6E37               	movwf	(get_corriente_AC@n_muestras+1)^0,c
   815  001498  0ED0               	movlw	208
   816  00149A  6E36               	movwf	get_corriente_AC@n_muestras^0,c
   817  00149C  ECF1  F00B         	call	_get_corriente_AC	;wreg free
   818  0014A0  C036  F0A0         	movff	?_get_corriente_AC,_trip_protec_current$2118
   819  0014A4  C037  F0A1         	movff	?_get_corriente_AC+1,_trip_protec_current$2118+1
   820  0014A8  C038  F0A2         	movff	?_get_corriente_AC+2,_trip_protec_current$2118+2
   821  0014AC  C039  F0A3         	movff	?_get_corriente_AC+3,_trip_protec_current$2118+3
   822  0014B0                     
   823                           ;main.c: 198:     I = ((get_corriente_AC(2000) - offset) / relacion);
   824  0014B0  0ECD               	movlw	205
   825  0014B2  6E09               	movwf	___fladd@a^0,c
   826  0014B4  0ECC               	movlw	204
   827  0014B6  6E0A               	movwf	(___fladd@a+1)^0,c
   828  0014B8  0ECC               	movlw	204
   829  0014BA  6E0B               	movwf	(___fladd@a+2)^0,c
   830  0014BC  0EBD               	movlw	189
   831  0014BE  6E0C               	movwf	(___fladd@a+3)^0,c
   832  0014C0  C0A0  F005         	movff	_trip_protec_current$2118,___fladd@b
   833  0014C4  C0A1  F006         	movff	_trip_protec_current$2118+1,___fladd@b+1
   834  0014C8  C0A2  F007         	movff	_trip_protec_current$2118+2,___fladd@b+2
   835  0014CC  C0A3  F008         	movff	_trip_protec_current$2118+3,___fladd@b+3
   836  0014D0  EC08  F004         	call	___fladd	;wreg free
   837  0014D4  C005  F01D         	movff	?___fladd,___fldiv@b
   838  0014D8  C006  F01E         	movff	?___fladd+1,___fldiv@b+1
   839  0014DC  C007  F01F         	movff	?___fladd+2,___fldiv@b+2
   840  0014E0  C008  F020         	movff	?___fladd+3,___fldiv@b+3
   841  0014E4  0ECD               	movlw	205
   842  0014E6  6E21               	movwf	___fldiv@a^0,c
   843  0014E8  0ECC               	movlw	204
   844  0014EA  6E22               	movwf	(___fldiv@a+1)^0,c
   845  0014EC  0ECC               	movlw	204
   846  0014EE  6E23               	movwf	(___fldiv@a+2)^0,c
   847  0014F0  0E3D               	movlw	61
   848  0014F2  6E24               	movwf	(___fldiv@a+3)^0,c
   849  0014F4  EC7D  F008         	call	___fldiv	;wreg free
   850  0014F8  C01D  F047         	movff	?___fldiv,_I
   851  0014FC  C01E  F048         	movff	?___fldiv+1,_I+1
   852  001500  C01F  F049         	movff	?___fldiv+2,_I+2
   853  001504  C020  F04A         	movff	?___fldiv+3,_I+3
   854  001508                     
   855                           ;main.c: 199:     if (I <= 9)
   856  001508  0E00               	movlw	0
   857  00150A  6E05               	movwf	___flge@ff1^0,c
   858  00150C  0E00               	movlw	0
   859  00150E  6E06               	movwf	(___flge@ff1+1)^0,c
   860  001510  0E10               	movlw	16
   861  001512  6E07               	movwf	(___flge@ff1+2)^0,c
   862  001514  0E41               	movlw	65
   863  001516  6E08               	movwf	(___flge@ff1+3)^0,c
   864  001518  C047  F009         	movff	_I,___flge@ff2
   865  00151C  C048  F00A         	movff	_I+1,___flge@ff2+1
   866  001520  C049  F00B         	movff	_I+2,___flge@ff2+2
   867  001524  C04A  F00C         	movff	_I+3,___flge@ff2+3
   868  001528  ECB8  F00D         	call	___flge	;wreg free
   869  00152C  A0D8               	btfss	status,0,c
   870  00152E  EF9B  F00A         	goto	u3651
   871  001532  EF9D  F00A         	goto	u3650
   872  001536                     u3651:
   873  001536  EFD5  F00A         	goto	l3644
   874  00153A                     u3650:
   875  00153A                     
   876                           ;main.c: 200:     {;main.c: 201:         LATA5 = 0;
   877  00153A  9A89               	bcf	3977,5,c	;volatile
   878                           
   879                           ;main.c: 202:         currentSeg = conteo;
   880  00153C  C076  F072         	movff	_conteo,_currentSeg
   881  001540  C077  F073         	movff	_conteo+1,_currentSeg+1
   882  001544  C078  F074         	movff	_conteo+2,_currentSeg+2
   883  001548  C079  F075         	movff	_conteo+3,_currentSeg+3
   884  00154C                     
   885                           ;main.c: 203:         if (currentSeg - previousMillis >= intervalo)
   886  00154C  0100               	movlb	0	; () banked
   887  00154E  516E               	movf	_previousMillis& (0+255),w,b
   888  001550  5D72               	subwf	_currentSeg& (0+255),w,b
   889  001552  6E41               	movwf	??_trip_protec_current^0,c
   890  001554  516F               	movf	(_previousMillis+1)& (0+255),w,b
   891  001556  5973               	subwfb	(_currentSeg+1)& (0+255),w,b
   892  001558  6E42               	movwf	(??_trip_protec_current+1)^0,c
   893  00155A  5170               	movf	(_previousMillis+2)& (0+255),w,b
   894  00155C  5974               	subwfb	(_currentSeg+2)& (0+255),w,b
   895  00155E  6E43               	movwf	(??_trip_protec_current+2)^0,c
   896  001560  5171               	movf	(_previousMillis+3)& (0+255),w,b
   897  001562  5975               	subwfb	(_currentSeg+3)& (0+255),w,b
   898  001564  6E44               	movwf	(??_trip_protec_current+3)^0,c
   899  001566  5044               	movf	(??_trip_protec_current+3)^0,w,c
   900  001568  1043               	iorwf	(??_trip_protec_current+2)^0,w,c
   901  00156A  E10B               	bnz	u3660
   902  00156C  0E40               	movlw	64
   903  00156E  5C41               	subwf	??_trip_protec_current^0,w,c
   904  001570  0E38               	movlw	56
   905  001572  5842               	subwfb	(??_trip_protec_current+1)^0,w,c
   906  001574  A0D8               	btfss	status,0,c
   907  001576  EFBF  F00A         	goto	u3661
   908  00157A  EFC1  F00A         	goto	u3660
   909  00157E                     u3661:
   910  00157E  EFD5  F00A         	goto	l3644
   911  001582                     u3660:
   912  001582                     
   913                           ; BSR set to: 0
   914                           ;main.c: 204:         {;main.c: 205:             previousMillis = currentSeg;
   915  001582  C072  F06E         	movff	_currentSeg,_previousMillis
   916  001586  C073  F06F         	movff	_currentSeg+1,_previousMillis+1
   917  00158A  C074  F070         	movff	_currentSeg+2,_previousMillis+2
   918  00158E  C075  F071         	movff	_currentSeg+3,_previousMillis+3
   919                           
   920                           ;main.c: 206:             LATA5 = 1;
   921  001592  8A89               	bsf	3977,5,c	;volatile
   922  001594                     
   923                           ; BSR set to: 0
   924                           ;main.c: 207:             _delay((unsigned long)((3000)*(48000000/4000.0)));
   925  001594  0EB7               	movlw	183
   926  001596  6E42               	movwf	(??_trip_protec_current+1)^0,c
   927  001598  0EA1               	movlw	161
   928  00159A  6E41               	movwf	??_trip_protec_current^0,c
   929  00159C  0EC4               	movlw	196
   930  00159E                     u3847:
   931  00159E  2EE8               	decfsz	wreg,f,c
   932  0015A0  D7FE               	bra	u3847
   933  0015A2  2E41               	decfsz	??_trip_protec_current^0,f,c
   934  0015A4  D7FC               	bra	u3847
   935  0015A6  2E42               	decfsz	(??_trip_protec_current+1)^0,f,c
   936  0015A8  D7FA               	bra	u3847
   937  0015AA                     l3644:
   938                           
   939                           ;main.c: 210:     if (I >= 16 && I < 17)
   940  0015AA  C047  F005         	movff	_I,___flge@ff1
   941  0015AE  C048  F006         	movff	_I+1,___flge@ff1+1
   942  0015B2  C049  F007         	movff	_I+2,___flge@ff1+2
   943  0015B6  C04A  F008         	movff	_I+3,___flge@ff1+3
   944  0015BA  0E00               	movlw	0
   945  0015BC  6E09               	movwf	___flge@ff2^0,c
   946  0015BE  0E00               	movlw	0
   947  0015C0  6E0A               	movwf	(___flge@ff2+1)^0,c
   948  0015C2  0E80               	movlw	128
   949  0015C4  6E0B               	movwf	(___flge@ff2+2)^0,c
   950  0015C6  0E41               	movlw	65
   951  0015C8  6E0C               	movwf	(___flge@ff2+3)^0,c
   952  0015CA  ECB8  F00D         	call	___flge	;wreg free
   953  0015CE  A0D8               	btfss	status,0,c
   954  0015D0  EFEC  F00A         	goto	u3671
   955  0015D4  EFEE  F00A         	goto	u3670
   956  0015D8                     u3671:
   957  0015D8  EF22  F00B         	goto	l3654
   958  0015DC                     u3670:
   959  0015DC  C047  F005         	movff	_I,___flge@ff1
   960  0015E0  C048  F006         	movff	_I+1,___flge@ff1+1
   961  0015E4  C049  F007         	movff	_I+2,___flge@ff1+2
   962  0015E8  C04A  F008         	movff	_I+3,___flge@ff1+3
   963  0015EC  0E00               	movlw	0
   964  0015EE  6E09               	movwf	___flge@ff2^0,c
   965  0015F0  0E00               	movlw	0
   966  0015F2  6E0A               	movwf	(___flge@ff2+1)^0,c
   967  0015F4  0E88               	movlw	136
   968  0015F6  6E0B               	movwf	(___flge@ff2+2)^0,c
   969  0015F8  0E41               	movlw	65
   970  0015FA  6E0C               	movwf	(___flge@ff2+3)^0,c
   971  0015FC  ECB8  F00D         	call	___flge	;wreg free
   972  001600  B0D8               	btfsc	status,0,c
   973  001602  EF05  F00B         	goto	u3681
   974  001606  EF07  F00B         	goto	u3680
   975  00160A                     u3681:
   976  00160A  EF22  F00B         	goto	l3654
   977  00160E                     u3680:
   978  00160E                     
   979                           ;main.c: 211:     {;main.c: 212:         i = i + 1;
   980  00160E  0E01               	movlw	1
   981  001610  2457               	addwf	_i^0,w,c
   982  001612  6E57               	movwf	_i^0,c
   983  001614  0E00               	movlw	0
   984  001616  2058               	addwfc	(_i+1)^0,w,c
   985  001618  6E58               	movwf	(_i+1)^0,c
   986                           
   987                           ;main.c: 213:         if (i > 600)
   988  00161A  BE58               	btfsc	(_i+1)^0,7,c
   989  00161C  EF19  F00B         	goto	u3691
   990  001620  0E59               	movlw	89
   991  001622  5C57               	subwf	_i^0,w,c
   992  001624  0E02               	movlw	2
   993  001626  5858               	subwfb	(_i+1)^0,w,c
   994  001628  A0D8               	btfss	status,0,c
   995  00162A  EF19  F00B         	goto	u3691
   996  00162E  EF1B  F00B         	goto	u3690
   997  001632                     u3691:
   998  001632  EF22  F00B         	goto	l3654
   999  001636                     u3690:
  1000  001636                     
  1001                           ;main.c: 214:         {;main.c: 215:             i = 0;
  1002  001636  0E00               	movlw	0
  1003  001638  6E58               	movwf	(_i+1)^0,c
  1004  00163A  0E00               	movlw	0
  1005  00163C  6E57               	movwf	_i^0,c
  1006  00163E                     
  1007                           ;main.c: 216:             LATA5 = 0;
  1008  00163E  9A89               	bcf	3977,5,c	;volatile
  1009  001640                     l372:
  1010  001640  EF20  F00B         	goto	l372
  1011  001644                     l3654:
  1012                           
  1013                           ;main.c: 220:     if (I >= 17 && I < 18)
  1014  001644  C047  F005         	movff	_I,___flge@ff1
  1015  001648  C048  F006         	movff	_I+1,___flge@ff1+1
  1016  00164C  C049  F007         	movff	_I+2,___flge@ff1+2
  1017  001650  C04A  F008         	movff	_I+3,___flge@ff1+3
  1018  001654  0E00               	movlw	0
  1019  001656  6E09               	movwf	___flge@ff2^0,c
  1020  001658  0E00               	movlw	0
  1021  00165A  6E0A               	movwf	(___flge@ff2+1)^0,c
  1022  00165C  0E88               	movlw	136
  1023  00165E  6E0B               	movwf	(___flge@ff2+2)^0,c
  1024  001660  0E41               	movlw	65
  1025  001662  6E0C               	movwf	(___flge@ff2+3)^0,c
  1026  001664  ECB8  F00D         	call	___flge	;wreg free
  1027  001668  A0D8               	btfss	status,0,c
  1028  00166A  EF39  F00B         	goto	u3701
  1029  00166E  EF3B  F00B         	goto	u3700
  1030  001672                     u3701:
  1031  001672  EF6F  F00B         	goto	l3664
  1032  001676                     u3700:
  1033  001676  C047  F005         	movff	_I,___flge@ff1
  1034  00167A  C048  F006         	movff	_I+1,___flge@ff1+1
  1035  00167E  C049  F007         	movff	_I+2,___flge@ff1+2
  1036  001682  C04A  F008         	movff	_I+3,___flge@ff1+3
  1037  001686  0E00               	movlw	0
  1038  001688  6E09               	movwf	___flge@ff2^0,c
  1039  00168A  0E00               	movlw	0
  1040  00168C  6E0A               	movwf	(___flge@ff2+1)^0,c
  1041  00168E  0E90               	movlw	144
  1042  001690  6E0B               	movwf	(___flge@ff2+2)^0,c
  1043  001692  0E41               	movlw	65
  1044  001694  6E0C               	movwf	(___flge@ff2+3)^0,c
  1045  001696  ECB8  F00D         	call	___flge	;wreg free
  1046  00169A  B0D8               	btfsc	status,0,c
  1047  00169C  EF52  F00B         	goto	u3711
  1048  0016A0  EF54  F00B         	goto	u3710
  1049  0016A4                     u3711:
  1050  0016A4  EF6F  F00B         	goto	l3664
  1051  0016A8                     u3710:
  1052  0016A8                     
  1053                           ;main.c: 221:     {;main.c: 222:         j = j + 1;
  1054  0016A8  0E01               	movlw	1
  1055  0016AA  2455               	addwf	_j^0,w,c
  1056  0016AC  6E55               	movwf	_j^0,c
  1057  0016AE  0E00               	movlw	0
  1058  0016B0  2056               	addwfc	(_j+1)^0,w,c
  1059  0016B2  6E56               	movwf	(_j+1)^0,c
  1060                           
  1061                           ;main.c: 223:         if ( j > 300)
  1062  0016B4  BE56               	btfsc	(_j+1)^0,7,c
  1063  0016B6  EF66  F00B         	goto	u3721
  1064  0016BA  0E2D               	movlw	45
  1065  0016BC  5C55               	subwf	_j^0,w,c
  1066  0016BE  0E01               	movlw	1
  1067  0016C0  5856               	subwfb	(_j+1)^0,w,c
  1068  0016C2  A0D8               	btfss	status,0,c
  1069  0016C4  EF66  F00B         	goto	u3721
  1070  0016C8  EF68  F00B         	goto	u3720
  1071  0016CC                     u3721:
  1072  0016CC  EF6F  F00B         	goto	l3664
  1073  0016D0                     u3720:
  1074  0016D0                     
  1075                           ;main.c: 224:         {;main.c: 225:             j = 0;
  1076  0016D0  0E00               	movlw	0
  1077  0016D2  6E56               	movwf	(_j+1)^0,c
  1078  0016D4  0E00               	movlw	0
  1079  0016D6  6E55               	movwf	_j^0,c
  1080  0016D8                     
  1081                           ;main.c: 226:             LATA5 = 0;
  1082  0016D8  9A89               	bcf	3977,5,c	;volatile
  1083  0016DA                     l377:
  1084  0016DA  EF6D  F00B         	goto	l377
  1085  0016DE                     l3664:
  1086                           
  1087                           ;main.c: 230:     if (I >= 18 && I < 19)
  1088  0016DE  C047  F005         	movff	_I,___flge@ff1
  1089  0016E2  C048  F006         	movff	_I+1,___flge@ff1+1
  1090  0016E6  C049  F007         	movff	_I+2,___flge@ff1+2
  1091  0016EA  C04A  F008         	movff	_I+3,___flge@ff1+3
  1092  0016EE  0E00               	movlw	0
  1093  0016F0  6E09               	movwf	___flge@ff2^0,c
  1094  0016F2  0E00               	movlw	0
  1095  0016F4  6E0A               	movwf	(___flge@ff2+1)^0,c
  1096  0016F6  0E90               	movlw	144
  1097  0016F8  6E0B               	movwf	(___flge@ff2+2)^0,c
  1098  0016FA  0E41               	movlw	65
  1099  0016FC  6E0C               	movwf	(___flge@ff2+3)^0,c
  1100  0016FE  ECB8  F00D         	call	___flge	;wreg free
  1101  001702  A0D8               	btfss	status,0,c
  1102  001704  EF86  F00B         	goto	u3731
  1103  001708  EF88  F00B         	goto	u3730
  1104  00170C                     u3731:
  1105  00170C  EFBC  F00B         	goto	l3674
  1106  001710                     u3730:
  1107  001710  C047  F005         	movff	_I,___flge@ff1
  1108  001714  C048  F006         	movff	_I+1,___flge@ff1+1
  1109  001718  C049  F007         	movff	_I+2,___flge@ff1+2
  1110  00171C  C04A  F008         	movff	_I+3,___flge@ff1+3
  1111  001720  0E00               	movlw	0
  1112  001722  6E09               	movwf	___flge@ff2^0,c
  1113  001724  0E00               	movlw	0
  1114  001726  6E0A               	movwf	(___flge@ff2+1)^0,c
  1115  001728  0E98               	movlw	152
  1116  00172A  6E0B               	movwf	(___flge@ff2+2)^0,c
  1117  00172C  0E41               	movlw	65
  1118  00172E  6E0C               	movwf	(___flge@ff2+3)^0,c
  1119  001730  ECB8  F00D         	call	___flge	;wreg free
  1120  001734  B0D8               	btfsc	status,0,c
  1121  001736  EF9F  F00B         	goto	u3741
  1122  00173A  EFA1  F00B         	goto	u3740
  1123  00173E                     u3741:
  1124  00173E  EFBC  F00B         	goto	l3674
  1125  001742                     u3740:
  1126  001742                     
  1127                           ;main.c: 231:     {;main.c: 232:         k = k + 1;
  1128  001742  0E01               	movlw	1
  1129  001744  2453               	addwf	_k^0,w,c
  1130  001746  6E53               	movwf	_k^0,c
  1131  001748  0E00               	movlw	0
  1132  00174A  2054               	addwfc	(_k+1)^0,w,c
  1133  00174C  6E54               	movwf	(_k+1)^0,c
  1134                           
  1135                           ;main.c: 233:         if (k > 120)
  1136  00174E  BE54               	btfsc	(_k+1)^0,7,c
  1137  001750  EFB3  F00B         	goto	u3751
  1138  001754  5054               	movf	(_k+1)^0,w,c
  1139  001756  E109               	bnz	u3750
  1140  001758  0E79               	movlw	121
  1141  00175A  5C53               	subwf	_k^0,w,c
  1142  00175C  A0D8               	btfss	status,0,c
  1143  00175E  EFB3  F00B         	goto	u3751
  1144  001762  EFB5  F00B         	goto	u3750
  1145  001766                     u3751:
  1146  001766  EFBC  F00B         	goto	l3674
  1147  00176A                     u3750:
  1148  00176A                     
  1149                           ;main.c: 234:         {;main.c: 235:             k = 0;
  1150  00176A  0E00               	movlw	0
  1151  00176C  6E54               	movwf	(_k+1)^0,c
  1152  00176E  0E00               	movlw	0
  1153  001770  6E53               	movwf	_k^0,c
  1154  001772                     
  1155                           ;main.c: 236:             LATA5 = 0;
  1156  001772  9A89               	bcf	3977,5,c	;volatile
  1157  001774                     l382:
  1158  001774  EFBA  F00B         	goto	l382
  1159  001778                     l3674:
  1160                           
  1161                           ;main.c: 240:     if (I >= 19)
  1162  001778  C047  F005         	movff	_I,___flge@ff1
  1163  00177C  C048  F006         	movff	_I+1,___flge@ff1+1
  1164  001780  C049  F007         	movff	_I+2,___flge@ff1+2
  1165  001784  C04A  F008         	movff	_I+3,___flge@ff1+3
  1166  001788  0E00               	movlw	0
  1167  00178A  6E09               	movwf	___flge@ff2^0,c
  1168  00178C  0E00               	movlw	0
  1169  00178E  6E0A               	movwf	(___flge@ff2+1)^0,c
  1170  001790  0E98               	movlw	152
  1171  001792  6E0B               	movwf	(___flge@ff2+2)^0,c
  1172  001794  0E41               	movlw	65
  1173  001796  6E0C               	movwf	(___flge@ff2+3)^0,c
  1174  001798  ECB8  F00D         	call	___flge	;wreg free
  1175  00179C  A0D8               	btfss	status,0,c
  1176  00179E  EFD3  F00B         	goto	u3761
  1177  0017A2  EFD5  F00B         	goto	u3760
  1178  0017A6                     u3761:
  1179  0017A6  EFF0  F00B         	goto	l390
  1180  0017AA                     u3760:
  1181  0017AA                     
  1182                           ;main.c: 241:     {;main.c: 242:         l = l + 1;
  1183  0017AA  0E01               	movlw	1
  1184  0017AC  2451               	addwf	_l^0,w,c
  1185  0017AE  6E51               	movwf	_l^0,c
  1186  0017B0  0E00               	movlw	0
  1187  0017B2  2052               	addwfc	(_l+1)^0,w,c
  1188  0017B4  6E52               	movwf	(_l+1)^0,c
  1189                           
  1190                           ;main.c: 243:         if (l > 15)
  1191  0017B6  BE52               	btfsc	(_l+1)^0,7,c
  1192  0017B8  EFE7  F00B         	goto	u3771
  1193  0017BC  5052               	movf	(_l+1)^0,w,c
  1194  0017BE  E109               	bnz	u3770
  1195  0017C0  0E10               	movlw	16
  1196  0017C2  5C51               	subwf	_l^0,w,c
  1197  0017C4  A0D8               	btfss	status,0,c
  1198  0017C6  EFE7  F00B         	goto	u3771
  1199  0017CA  EFE9  F00B         	goto	u3770
  1200  0017CE                     u3771:
  1201  0017CE  EFF0  F00B         	goto	l390
  1202  0017D2                     u3770:
  1203  0017D2                     
  1204                           ;main.c: 244:         {;main.c: 245:             l = 0;
  1205  0017D2  0E00               	movlw	0
  1206  0017D4  6E52               	movwf	(_l+1)^0,c
  1207  0017D6  0E00               	movlw	0
  1208  0017D8  6E51               	movwf	_l^0,c
  1209  0017DA                     
  1210                           ;main.c: 246:             LATA5 = 0;
  1211  0017DA  9A89               	bcf	3977,5,c	;volatile
  1212  0017DC                     l387:
  1213  0017DC  EFEE  F00B         	goto	l387
  1214  0017E0                     l390:
  1215  0017E0  0012               	return		;funcret
  1216  0017E2                     __end_of_trip_protec_current:
  1217                           	callstack 0
  1218                           
  1219 ;; *************** function _get_corriente_AC *****************
  1220 ;; Defined at:
  1221 ;;		line 135 in file "main.c"
  1222 ;; Parameters:    Size  Location     Type
  1223 ;;  n_muestras      2   53[COMRAM] int 
  1224 ;; Auto vars:     Size  Location     Type
  1225 ;;  i               2   58[COMRAM] int 
  1226 ;;  corriente       4   60[COMRAM] int 
  1227 ;; Return value:  Size  Location     Type
  1228 ;;                  4   53[COMRAM] int 
  1229 ;; Registers used:
  1230 ;;		wreg, status,2, status,0, prodl, prodh, cstack
  1231 ;; Tracked objects:
  1232 ;;		On entry : 0/0
  1233 ;;		On exit  : 0/0
  1234 ;;		Unchanged: 0/0
  1235 ;; Data sizes:     COMRAM   BANK0   BANK1   BANK2   BANK3   BANK4   BANK5   BANK6   BANK7
  1236 ;;      Params:         4       0       0       0       0       0       0       0       0
  1237 ;;      Locals:         6       0       0       0       0       0       0       0       0
  1238 ;;      Temps:          1       0       0       0       0       0       0       0       0
  1239 ;;      Totals:        11       0       0       0       0       0       0       0       0
  1240 ;;Total ram usage:       11 bytes
  1241 ;; Hardware stack levels used: 1
  1242 ;; Hardware stack levels required when called: 6
  1243 ;; This function calls:
  1244 ;;		_ADC_GetConversion
  1245 ;;		___fladd
  1246 ;;		___fldiv
  1247 ;;		___flge
  1248 ;;		___flmul
  1249 ;;		___flsub
  1250 ;;		___xxtofl
  1251 ;; This function is called by:
  1252 ;;		_trip_protec_current
  1253 ;; This function uses a non-reentrant model
  1254 ;;
  1255                           
  1256                           	psect	text2
  1257  0017E2                     __ptext2:
  1258                           	callstack 0
  1259  0017E2                     _get_corriente_AC:
  1260                           	callstack 23
  1261  0017E2                     
  1262                           ;main.c: 138:   I_max = 0.0;
  1263  0017E2  0E00               	movlw	0
  1264  0017E4  0100               	movlb	0	; () banked
  1265  0017E6  6F82               	movwf	_I_max& (0+255),b
  1266  0017E8  0E00               	movlw	0
  1267  0017EA  6F83               	movwf	(_I_max+1)& (0+255),b
  1268  0017EC  0E00               	movlw	0
  1269  0017EE  6F84               	movwf	(_I_max+2)& (0+255),b
  1270  0017F0  0E00               	movlw	0
  1271  0017F2  6F85               	movwf	(_I_max+3)& (0+255),b
  1272                           
  1273                           ;main.c: 139:   I_min = 0.0;
  1274  0017F4  0E00               	movlw	0
  1275  0017F6  6F7E               	movwf	_I_min& (0+255),b
  1276  0017F8  0E00               	movlw	0
  1277  0017FA  6F7F               	movwf	(_I_min+1)& (0+255),b
  1278  0017FC  0E00               	movlw	0
  1279  0017FE  6F80               	movwf	(_I_min+2)& (0+255),b
  1280  001800  0E00               	movlw	0
  1281  001802  6F81               	movwf	(_I_min+3)& (0+255),b
  1282                           
  1283                           ;main.c: 140:   for(int i = 0; i < n_muestras; i++)
  1284  001804  0E00               	movlw	0
  1285  001806  6E3C               	movwf	(get_corriente_AC@i+1)^0,c
  1286  001808  0E00               	movlw	0
  1287  00180A  6E3B               	movwf	get_corriente_AC@i^0,c
  1288  00180C  EFA2  F00C         	goto	l3624
  1289  001810                     l3608:
  1290                           
  1291                           ;main.c: 141:   {;main.c: 142:       valor = ADC_GetConversion(0);
  1292  001810  0E00               	movlw	0
  1293  001812  ECC5  F00F         	call	_ADC_GetConversion
  1294  001816  C005  F08A         	movff	?_ADC_GetConversion,_valor
  1295  00181A  C006  F08B         	movff	?_ADC_GetConversion+1,_valor+1
  1296  00181E                     
  1297                           ;main.c: 143:       voltaje = valor * (5.0 / 1023.0);
  1298  00181E  C08A  F005         	movff	_valor,___xxtofl@val
  1299  001822  C08B  F006         	movff	_valor+1,___xxtofl@val+1
  1300  001826  6A07               	clrf	(___xxtofl@val+2)^0,c
  1301  001828  6A08               	clrf	(___xxtofl@val+3)^0,c
  1302  00182A  0E00               	movlw	0
  1303  00182C  ECDE  F00C         	call	___xxtofl
  1304  001830  C005  F013         	movff	?___xxtofl,___flmul@b
  1305  001834  C006  F014         	movff	?___xxtofl+1,___flmul@b+1
  1306  001838  C007  F015         	movff	?___xxtofl+2,___flmul@b+2
  1307  00183C  C008  F016         	movff	?___xxtofl+3,___flmul@b+3
  1308  001840  0E0A               	movlw	10
  1309  001842  6E17               	movwf	___flmul@a^0,c
  1310  001844  0E28               	movlw	40
  1311  001846  6E18               	movwf	(___flmul@a+1)^0,c
  1312  001848  0EA0               	movlw	160
  1313  00184A  6E19               	movwf	(___flmul@a+2)^0,c
  1314  00184C  0E3B               	movlw	59
  1315  00184E  6E1A               	movwf	(___flmul@a+3)^0,c
  1316  001850  EC68  F006         	call	___flmul	;wreg free
  1317  001854  C013  F086         	movff	?___flmul,_voltaje
  1318  001858  C014  F087         	movff	?___flmul+1,_voltaje+1
  1319  00185C  C015  F088         	movff	?___flmul+2,_voltaje+2
  1320  001860  C016  F089         	movff	?___flmul+3,_voltaje+3
  1321  001864                     
  1322                           ;main.c: 144:       corriente = ((voltaje - 2.527) / sensibilidad);
  1323  001864  0E5E               	movlw	94
  1324  001866  6E09               	movwf	___fladd@a^0,c
  1325  001868  0EBA               	movlw	186
  1326  00186A  6E0A               	movwf	(___fladd@a+1)^0,c
  1327  00186C  0E21               	movlw	33
  1328  00186E  6E0B               	movwf	(___fladd@a+2)^0,c
  1329  001870  0EC0               	movlw	192
  1330  001872  6E0C               	movwf	(___fladd@a+3)^0,c
  1331  001874  C086  F005         	movff	_voltaje,___fladd@b
  1332  001878  C087  F006         	movff	_voltaje+1,___fladd@b+1
  1333  00187C  C088  F007         	movff	_voltaje+2,___fladd@b+2
  1334  001880  C089  F008         	movff	_voltaje+3,___fladd@b+3
  1335  001884  EC08  F004         	call	___fladd	;wreg free
  1336  001888  C005  F01D         	movff	?___fladd,___fldiv@b
  1337  00188C  C006  F01E         	movff	?___fladd+1,___fldiv@b+1
  1338  001890  C007  F01F         	movff	?___fladd+2,___fldiv@b+2
  1339  001894  C008  F020         	movff	?___fladd+3,___fldiv@b+3
  1340  001898  0E4E               	movlw	78
  1341  00189A  6E21               	movwf	___fldiv@a^0,c
  1342  00189C  0E62               	movlw	98
  1343  00189E  6E22               	movwf	(___fldiv@a+1)^0,c
  1344  0018A0  0E90               	movlw	144
  1345  0018A2  6E23               	movwf	(___fldiv@a+2)^0,c
  1346  0018A4  0E3E               	movlw	62
  1347  0018A6  6E24               	movwf	(___fldiv@a+3)^0,c
  1348  0018A8  EC7D  F008         	call	___fldiv	;wreg free
  1349  0018AC  C01D  F03D         	movff	?___fldiv,get_corriente_AC@corriente
  1350  0018B0  C01E  F03E         	movff	?___fldiv+1,get_corriente_AC@corriente+1
  1351  0018B4  C01F  F03F         	movff	?___fldiv+2,get_corriente_AC@corriente+2
  1352  0018B8  C020  F040         	movff	?___fldiv+3,get_corriente_AC@corriente+3
  1353  0018BC                     
  1354                           ;main.c: 145:       if (corriente > I_max) I_max = corriente;
  1355  0018BC  C082  F005         	movff	_I_max,___flge@ff1
  1356  0018C0  C083  F006         	movff	_I_max+1,___flge@ff1+1
  1357  0018C4  C084  F007         	movff	_I_max+2,___flge@ff1+2
  1358  0018C8  C085  F008         	movff	_I_max+3,___flge@ff1+3
  1359  0018CC  C03D  F009         	movff	get_corriente_AC@corriente,___flge@ff2
  1360  0018D0  C03E  F00A         	movff	get_corriente_AC@corriente+1,___flge@ff2+1
  1361  0018D4  C03F  F00B         	movff	get_corriente_AC@corriente+2,___flge@ff2+2
  1362  0018D8  C040  F00C         	movff	get_corriente_AC@corriente+3,___flge@ff2+3
  1363  0018DC  ECB8  F00D         	call	___flge	;wreg free
  1364  0018E0  B0D8               	btfsc	status,0,c
  1365  0018E2  EF75  F00C         	goto	u3621
  1366  0018E6  EF77  F00C         	goto	u3620
  1367  0018EA                     u3621:
  1368  0018EA  EF7F  F00C         	goto	l3618
  1369  0018EE                     u3620:
  1370  0018EE  C03D  F082         	movff	get_corriente_AC@corriente,_I_max
  1371  0018F2  C03E  F083         	movff	get_corriente_AC@corriente+1,_I_max+1
  1372  0018F6  C03F  F084         	movff	get_corriente_AC@corriente+2,_I_max+2
  1373  0018FA  C040  F085         	movff	get_corriente_AC@corriente+3,_I_max+3
  1374  0018FE                     l3618:
  1375                           
  1376                           ;main.c: 146:       if (corriente < I_min) I_min = corriente;
  1377  0018FE  C03D  F005         	movff	get_corriente_AC@corriente,___flge@ff1
  1378  001902  C03E  F006         	movff	get_corriente_AC@corriente+1,___flge@ff1+1
  1379  001906  C03F  F007         	movff	get_corriente_AC@corriente+2,___flge@ff1+2
  1380  00190A  C040  F008         	movff	get_corriente_AC@corriente+3,___flge@ff1+3
  1381  00190E  C07E  F009         	movff	_I_min,___flge@ff2
  1382  001912  C07F  F00A         	movff	_I_min+1,___flge@ff2+1
  1383  001916  C080  F00B         	movff	_I_min+2,___flge@ff2+2
  1384  00191A  C081  F00C         	movff	_I_min+3,___flge@ff2+3
  1385  00191E  ECB8  F00D         	call	___flge	;wreg free
  1386  001922  B0D8               	btfsc	status,0,c
  1387  001924  EF96  F00C         	goto	u3631
  1388  001928  EF98  F00C         	goto	u3630
  1389  00192C                     u3631:
  1390  00192C  EFA0  F00C         	goto	l3622
  1391  001930                     u3630:
  1392  001930  C03D  F07E         	movff	get_corriente_AC@corriente,_I_min
  1393  001934  C03E  F07F         	movff	get_corriente_AC@corriente+1,_I_min+1
  1394  001938  C03F  F080         	movff	get_corriente_AC@corriente+2,_I_min+2
  1395  00193C  C040  F081         	movff	get_corriente_AC@corriente+3,_I_min+3
  1396  001940                     l3622:
  1397                           
  1398                           ;main.c: 147:   }
  1399  001940  4A3B               	infsnz	get_corriente_AC@i^0,f,c
  1400  001942  2A3C               	incf	(get_corriente_AC@i+1)^0,f,c
  1401  001944                     l3624:
  1402  001944  5036               	movf	get_corriente_AC@n_muestras^0,w,c
  1403  001946  5C3B               	subwf	get_corriente_AC@i^0,w,c
  1404  001948  503C               	movf	(get_corriente_AC@i+1)^0,w,c
  1405  00194A  0A80               	xorlw	128
  1406  00194C  6E3A               	movwf	??_get_corriente_AC^0,c
  1407  00194E  5037               	movf	(get_corriente_AC@n_muestras+1)^0,w,c
  1408  001950  0A80               	xorlw	128
  1409  001952  583A               	subwfb	??_get_corriente_AC^0,w,c
  1410  001954  A0D8               	btfss	status,0,c
  1411  001956  EFAF  F00C         	goto	u3641
  1412  00195A  EFB1  F00C         	goto	u3640
  1413  00195E                     u3641:
  1414  00195E  EF08  F00C         	goto	l3608
  1415  001962                     u3640:
  1416  001962                     
  1417                           ;main.c: 150:   return(((I_max - I_min) / 2));
  1418  001962  C07E  F019         	movff	_I_min,___flsub@a
  1419  001966  C07F  F01A         	movff	_I_min+1,___flsub@a+1
  1420  00196A  C080  F01B         	movff	_I_min+2,___flsub@a+2
  1421  00196E  C081  F01C         	movff	_I_min+3,___flsub@a+3
  1422  001972  C082  F015         	movff	_I_max,___flsub@b
  1423  001976  C083  F016         	movff	_I_max+1,___flsub@b+1
  1424  00197A  C084  F017         	movff	_I_max+2,___flsub@b+2
  1425  00197E  C085  F018         	movff	_I_max+3,___flsub@b+3
  1426  001982  EC3D  F00F         	call	___flsub	;wreg free
  1427  001986  C015  F01D         	movff	?___flsub,___fldiv@b
  1428  00198A  C016  F01E         	movff	?___flsub+1,___fldiv@b+1
  1429  00198E  C017  F01F         	movff	?___flsub+2,___fldiv@b+2
  1430  001992  C018  F020         	movff	?___flsub+3,___fldiv@b+3
  1431  001996  0E00               	movlw	0
  1432  001998  6E21               	movwf	___fldiv@a^0,c
  1433  00199A  0E00               	movlw	0
  1434  00199C  6E22               	movwf	(___fldiv@a+1)^0,c
  1435  00199E  0E00               	movlw	0
  1436  0019A0  6E23               	movwf	(___fldiv@a+2)^0,c
  1437  0019A2  0E40               	movlw	64
  1438  0019A4  6E24               	movwf	(___fldiv@a+3)^0,c
  1439  0019A6  EC7D  F008         	call	___fldiv	;wreg free
  1440  0019AA  C01D  F036         	movff	?___fldiv,?_get_corriente_AC
  1441  0019AE  C01E  F037         	movff	?___fldiv+1,?_get_corriente_AC+1
  1442  0019B2  C01F  F038         	movff	?___fldiv+2,?_get_corriente_AC+2
  1443  0019B6  C020  F039         	movff	?___fldiv+3,?_get_corriente_AC+3
  1444  0019BA  0012               	return		;funcret
  1445  0019BC                     __end_of_get_corriente_AC:
  1446                           	callstack 0
  1447                           
  1448 ;; *************** function ___xxtofl *****************
  1449 ;; Defined at:
  1450 ;;		line 10 in file "C:\Program Files\Microchip\xc8\v2.32\pic\sources\c99\common\xxtofl.c"
  1451 ;; Parameters:    Size  Location     Type
  1452 ;;  sign            1    wreg     unsigned char 
  1453 ;;  val             4    4[COMRAM] long 
  1454 ;; Auto vars:     Size  Location     Type
  1455 ;;  sign            1   12[COMRAM] unsigned char 
  1456 ;;  arg             4   14[COMRAM] unsigned long 
  1457 ;;  exp             1   13[COMRAM] unsigned char 
  1458 ;; Return value:  Size  Location     Type
  1459 ;;                  4    4[COMRAM] unsigned char 
  1460 ;; Registers used:
  1461 ;;		wreg, status,2, status,0
  1462 ;; Tracked objects:
  1463 ;;		On entry : 0/0
  1464 ;;		On exit  : 0/0
  1465 ;;		Unchanged: 0/0
  1466 ;; Data sizes:     COMRAM   BANK0   BANK1   BANK2   BANK3   BANK4   BANK5   BANK6   BANK7
  1467 ;;      Params:         4       0       0       0       0       0       0       0       0
  1468 ;;      Locals:         6       0       0       0       0       0       0       0       0
  1469 ;;      Temps:          4       0       0       0       0       0       0       0       0
  1470 ;;      Totals:        14       0       0       0       0       0       0       0       0
  1471 ;;Total ram usage:       14 bytes
  1472 ;; Hardware stack levels used: 1
  1473 ;; Hardware stack levels required when called: 4
  1474 ;; This function calls:
  1475 ;;		Nothing
  1476 ;; This function is called by:
  1477 ;;		_get_corriente_AC
  1478 ;; This function uses a non-reentrant model
  1479 ;;
  1480                           
  1481                           	psect	text3
  1482  0019BC                     __ptext3:
  1483                           	callstack 0
  1484  0019BC                     ___xxtofl:
  1485                           	callstack 24
  1486                           
  1487                           ;incstack = 0
  1488                           ;___xxtofl@sign stored from wreg
  1489  0019BC  6E0D               	movwf	___xxtofl@sign^0,c
  1490  0019BE  500D               	movf	___xxtofl@sign^0,w,c
  1491  0019C0  B4D8               	btfsc	status,2,c
  1492  0019C2  EFE5  F00C         	goto	u3521
  1493  0019C6  EFE7  F00C         	goto	u3520
  1494  0019CA                     u3521:
  1495  0019CA  EF09  F00D         	goto	l1150
  1496  0019CE                     u3520:
  1497  0019CE  BE08               	btfsc	(___xxtofl@val+3)^0,7,c
  1498  0019D0  EFEE  F00C         	goto	u3530
  1499  0019D4  EFEC  F00C         	goto	u3531
  1500  0019D8                     u3531:
  1501  0019D8  EF09  F00D         	goto	l1150
  1502  0019DC                     u3530:
  1503  0019DC  C005  F009         	movff	___xxtofl@val,??___xxtofl
  1504  0019E0  C006  F00A         	movff	___xxtofl@val+1,??___xxtofl+1
  1505  0019E4  C007  F00B         	movff	___xxtofl@val+2,??___xxtofl+2
  1506  0019E8  C008  F00C         	movff	___xxtofl@val+3,??___xxtofl+3
  1507  0019EC  1E09               	comf	??___xxtofl^0,f,c
  1508  0019EE  1E0A               	comf	(??___xxtofl+1)^0,f,c
  1509  0019F0  1E0B               	comf	(??___xxtofl+2)^0,f,c
  1510  0019F2  1E0C               	comf	(??___xxtofl+3)^0,f,c
  1511  0019F4  2A09               	incf	??___xxtofl^0,f,c
  1512  0019F6  0E00               	movlw	0
  1513  0019F8  220A               	addwfc	(??___xxtofl+1)^0,f,c
  1514  0019FA  220B               	addwfc	(??___xxtofl+2)^0,f,c
  1515  0019FC  220C               	addwfc	(??___xxtofl+3)^0,f,c
  1516  0019FE  C009  F00F         	movff	??___xxtofl,___xxtofl@arg
  1517  001A02  C00A  F010         	movff	??___xxtofl+1,___xxtofl@arg+1
  1518  001A06  C00B  F011         	movff	??___xxtofl+2,___xxtofl@arg+2
  1519  001A0A  C00C  F012         	movff	??___xxtofl+3,___xxtofl@arg+3
  1520  001A0E  EF11  F00D         	goto	l3566
  1521  001A12                     l1150:
  1522  001A12  C005  F00F         	movff	___xxtofl@val,___xxtofl@arg
  1523  001A16  C006  F010         	movff	___xxtofl@val+1,___xxtofl@arg+1
  1524  001A1A  C007  F011         	movff	___xxtofl@val+2,___xxtofl@arg+2
  1525  001A1E  C008  F012         	movff	___xxtofl@val+3,___xxtofl@arg+3
  1526  001A22                     l3566:
  1527  001A22  5005               	movf	___xxtofl@val^0,w,c
  1528  001A24  1006               	iorwf	(___xxtofl@val+1)^0,w,c
  1529  001A26  1007               	iorwf	(___xxtofl@val+2)^0,w,c
  1530  001A28  1008               	iorwf	(___xxtofl@val+3)^0,w,c
  1531  001A2A  A4D8               	btfss	status,2,c
  1532  001A2C  EF1A  F00D         	goto	u3541
  1533  001A30  EF1C  F00D         	goto	u3540
  1534  001A34                     u3541:
  1535  001A34  EF26  F00D         	goto	l3572
  1536  001A38                     u3540:
  1537  001A38  0E00               	movlw	0
  1538  001A3A  6E05               	movwf	?___xxtofl^0,c
  1539  001A3C  0E00               	movlw	0
  1540  001A3E  6E06               	movwf	(?___xxtofl+1)^0,c
  1541  001A40  0E00               	movlw	0
  1542  001A42  6E07               	movwf	(?___xxtofl+2)^0,c
  1543  001A44  0E00               	movlw	0
  1544  001A46  6E08               	movwf	(?___xxtofl+3)^0,c
  1545  001A48  EFB7  F00D         	goto	l1153
  1546  001A4C                     l3572:
  1547  001A4C  0E96               	movlw	150
  1548  001A4E  6E0E               	movwf	___xxtofl@exp^0,c
  1549  001A50  EF30  F00D         	goto	l3576
  1550  001A54                     l3574:
  1551  001A54  2A0E               	incf	___xxtofl@exp^0,f,c
  1552  001A56  90D8               	bcf	status,0,c
  1553  001A58  3212               	rrcf	(___xxtofl@arg+3)^0,f,c
  1554  001A5A  3211               	rrcf	(___xxtofl@arg+2)^0,f,c
  1555  001A5C  3210               	rrcf	(___xxtofl@arg+1)^0,f,c
  1556  001A5E  320F               	rrcf	___xxtofl@arg^0,f,c
  1557  001A60                     l3576:
  1558  001A60  0E00               	movlw	0
  1559  001A62  140F               	andwf	___xxtofl@arg^0,w,c
  1560  001A64  6E09               	movwf	??___xxtofl^0,c
  1561  001A66  0E00               	movlw	0
  1562  001A68  1410               	andwf	(___xxtofl@arg+1)^0,w,c
  1563  001A6A  6E0A               	movwf	(??___xxtofl+1)^0,c
  1564  001A6C  0E00               	movlw	0
  1565  001A6E  1411               	andwf	(___xxtofl@arg+2)^0,w,c
  1566  001A70  6E0B               	movwf	(??___xxtofl+2)^0,c
  1567  001A72  0EFE               	movlw	254
  1568  001A74  1412               	andwf	(___xxtofl@arg+3)^0,w,c
  1569  001A76  6E0C               	movwf	(??___xxtofl+3)^0,c
  1570  001A78  5009               	movf	??___xxtofl^0,w,c
  1571  001A7A  100A               	iorwf	(??___xxtofl+1)^0,w,c
  1572  001A7C  100B               	iorwf	(??___xxtofl+2)^0,w,c
  1573  001A7E  100C               	iorwf	(??___xxtofl+3)^0,w,c
  1574  001A80  A4D8               	btfss	status,2,c
  1575  001A82  EF45  F00D         	goto	u3551
  1576  001A86  EF47  F00D         	goto	u3550
  1577  001A8A                     u3551:
  1578  001A8A  EF2A  F00D         	goto	l3574
  1579  001A8E                     u3550:
  1580  001A8E  EF55  F00D         	goto	l1157
  1581  001A92                     l3578:
  1582  001A92  2A0E               	incf	___xxtofl@exp^0,f,c
  1583  001A94  0E01               	movlw	1
  1584  001A96  260F               	addwf	___xxtofl@arg^0,f,c
  1585  001A98  0E00               	movlw	0
  1586  001A9A  2210               	addwfc	(___xxtofl@arg+1)^0,f,c
  1587  001A9C  2211               	addwfc	(___xxtofl@arg+2)^0,f,c
  1588  001A9E  2212               	addwfc	(___xxtofl@arg+3)^0,f,c
  1589  001AA0  90D8               	bcf	status,0,c
  1590  001AA2  3212               	rrcf	(___xxtofl@arg+3)^0,f,c
  1591  001AA4  3211               	rrcf	(___xxtofl@arg+2)^0,f,c
  1592  001AA6  3210               	rrcf	(___xxtofl@arg+1)^0,f,c
  1593  001AA8  320F               	rrcf	___xxtofl@arg^0,f,c
  1594  001AAA                     l1157:
  1595  001AAA  0E00               	movlw	0
  1596  001AAC  140F               	andwf	___xxtofl@arg^0,w,c
  1597  001AAE  6E09               	movwf	??___xxtofl^0,c
  1598  001AB0  0E00               	movlw	0
  1599  001AB2  1410               	andwf	(___xxtofl@arg+1)^0,w,c
  1600  001AB4  6E0A               	movwf	(??___xxtofl+1)^0,c
  1601  001AB6  0E00               	movlw	0
  1602  001AB8  1411               	andwf	(___xxtofl@arg+2)^0,w,c
  1603  001ABA  6E0B               	movwf	(??___xxtofl+2)^0,c
  1604  001ABC  0EFF               	movlw	255
  1605  001ABE  1412               	andwf	(___xxtofl@arg+3)^0,w,c
  1606  001AC0  6E0C               	movwf	(??___xxtofl+3)^0,c
  1607  001AC2  5009               	movf	??___xxtofl^0,w,c
  1608  001AC4  100A               	iorwf	(??___xxtofl+1)^0,w,c
  1609  001AC6  100B               	iorwf	(??___xxtofl+2)^0,w,c
  1610  001AC8  100C               	iorwf	(??___xxtofl+3)^0,w,c
  1611  001ACA  A4D8               	btfss	status,2,c
  1612  001ACC  EF6A  F00D         	goto	u3561
  1613  001AD0  EF6C  F00D         	goto	u3560
  1614  001AD4                     u3561:
  1615  001AD4  EF49  F00D         	goto	l3578
  1616  001AD8                     u3560:
  1617  001AD8  EF74  F00D         	goto	l3586
  1618  001ADC                     l3584:
  1619  001ADC  060E               	decf	___xxtofl@exp^0,f,c
  1620  001ADE  90D8               	bcf	status,0,c
  1621  001AE0  360F               	rlcf	___xxtofl@arg^0,f,c
  1622  001AE2  3610               	rlcf	(___xxtofl@arg+1)^0,f,c
  1623  001AE4  3611               	rlcf	(___xxtofl@arg+2)^0,f,c
  1624  001AE6  3612               	rlcf	(___xxtofl@arg+3)^0,f,c
  1625  001AE8                     l3586:
  1626  001AE8  BE11               	btfsc	(___xxtofl@arg+2)^0,7,c
  1627  001AEA  EF79  F00D         	goto	u3571
  1628  001AEE  EF7B  F00D         	goto	u3570
  1629  001AF2                     u3571:
  1630  001AF2  EF83  F00D         	goto	l1164
  1631  001AF6                     u3570:
  1632  001AF6  0E02               	movlw	2
  1633  001AF8  600E               	cpfslt	___xxtofl@exp^0,c
  1634  001AFA  EF81  F00D         	goto	u3581
  1635  001AFE  EF83  F00D         	goto	u3580
  1636  001B02                     u3581:
  1637  001B02  EF6E  F00D         	goto	l3584
  1638  001B06                     u3580:
  1639  001B06                     l1164:
  1640  001B06  B00E               	btfsc	___xxtofl@exp^0,0,c
  1641  001B08  EF88  F00D         	goto	u3591
  1642  001B0C  EF8A  F00D         	goto	u3590
  1643  001B10                     u3591:
  1644  001B10  EF8B  F00D         	goto	l3592
  1645  001B14                     u3590:
  1646  001B14  9E11               	bcf	(___xxtofl@arg+2)^0,7,c
  1647  001B16                     l3592:
  1648  001B16  90D8               	bcf	status,0,c
  1649  001B18  320E               	rrcf	___xxtofl@exp^0,f,c
  1650  001B1A  C00E  F009         	movff	___xxtofl@exp,??___xxtofl
  1651  001B1E  6A0A               	clrf	(??___xxtofl+1)^0,c
  1652  001B20  6A0B               	clrf	(??___xxtofl+2)^0,c
  1653  001B22  6A0C               	clrf	(??___xxtofl+3)^0,c
  1654  001B24  C009  F00C         	movff	??___xxtofl,??___xxtofl+3
  1655  001B28  6A0B               	clrf	(??___xxtofl+2)^0,c
  1656  001B2A  6A0A               	clrf	(??___xxtofl+1)^0,c
  1657  001B2C  6A09               	clrf	??___xxtofl^0,c
  1658  001B2E  5009               	movf	??___xxtofl^0,w,c
  1659  001B30  120F               	iorwf	___xxtofl@arg^0,f,c
  1660  001B32  500A               	movf	(??___xxtofl+1)^0,w,c
  1661  001B34  1210               	iorwf	(___xxtofl@arg+1)^0,f,c
  1662  001B36  500B               	movf	(??___xxtofl+2)^0,w,c
  1663  001B38  1211               	iorwf	(___xxtofl@arg+2)^0,f,c
  1664  001B3A  500C               	movf	(??___xxtofl+3)^0,w,c
  1665  001B3C  1212               	iorwf	(___xxtofl@arg+3)^0,f,c
  1666  001B3E  500D               	movf	___xxtofl@sign^0,w,c
  1667  001B40  B4D8               	btfsc	status,2,c
  1668  001B42  EFA5  F00D         	goto	u3601
  1669  001B46  EFA7  F00D         	goto	u3600
  1670  001B4A                     u3601:
  1671  001B4A  EFAF  F00D         	goto	l3602
  1672  001B4E                     u3600:
  1673  001B4E  BE08               	btfsc	(___xxtofl@val+3)^0,7,c
  1674  001B50  EFAE  F00D         	goto	u3610
  1675  001B54  EFAC  F00D         	goto	u3611
  1676  001B58                     u3611:
  1677  001B58  EFAF  F00D         	goto	l3602
  1678  001B5C                     u3610:
  1679  001B5C  8E12               	bsf	(___xxtofl@arg+3)^0,7,c
  1680  001B5E                     l3602:
  1681  001B5E  C00F  F005         	movff	___xxtofl@arg,?___xxtofl
  1682  001B62  C010  F006         	movff	___xxtofl@arg+1,?___xxtofl+1
  1683  001B66  C011  F007         	movff	___xxtofl@arg+2,?___xxtofl+2
  1684  001B6A  C012  F008         	movff	___xxtofl@arg+3,?___xxtofl+3
  1685  001B6E                     l1153:
  1686  001B6E  0012               	return		;funcret
  1687  001B70                     __end_of___xxtofl:
  1688                           	callstack 0
  1689                           
  1690 ;; *************** function ___flsub *****************
  1691 ;; Defined at:
  1692 ;;		line 245 in file "C:\Program Files\Microchip\xc8\v2.32\pic\sources\c99\common\sprcadd.c"
  1693 ;; Parameters:    Size  Location     Type
  1694 ;;  b               4   20[COMRAM] unsigned char 
  1695 ;;  a               4   24[COMRAM] unsigned char 
  1696 ;; Auto vars:     Size  Location     Type
  1697 ;;		None
  1698 ;; Return value:  Size  Location     Type
  1699 ;;                  4   20[COMRAM] unsigned char 
  1700 ;; Registers used:
  1701 ;;		wreg, status,2, status,0, cstack
  1702 ;; Tracked objects:
  1703 ;;		On entry : 0/0
  1704 ;;		On exit  : 0/0
  1705 ;;		Unchanged: 0/0
  1706 ;; Data sizes:     COMRAM   BANK0   BANK1   BANK2   BANK3   BANK4   BANK5   BANK6   BANK7
  1707 ;;      Params:         8       0       0       0       0       0       0       0       0
  1708 ;;      Locals:         0       0       0       0       0       0       0       0       0
  1709 ;;      Temps:          0       0       0       0       0       0       0       0       0
  1710 ;;      Totals:         8       0       0       0       0       0       0       0       0
  1711 ;;Total ram usage:        8 bytes
  1712 ;; Hardware stack levels used: 1
  1713 ;; Hardware stack levels required when called: 5
  1714 ;; This function calls:
  1715 ;;		___fladd
  1716 ;; This function is called by:
  1717 ;;		_get_corriente_AC
  1718 ;;		_trip_protec_current
  1719 ;; This function uses a non-reentrant model
  1720 ;;
  1721                           
  1722                           	psect	text4
  1723  001E7A                     __ptext4:
  1724                           	callstack 0
  1725  001E7A                     ___flsub:
  1726                           	callstack 23
  1727  001E7A  0E00               	movlw	0
  1728  001E7C  1A19               	xorwf	___flsub@a^0,f,c
  1729  001E7E  0E00               	movlw	0
  1730  001E80  1A1A               	xorwf	(___flsub@a+1)^0,f,c
  1731  001E82  0E00               	movlw	0
  1732  001E84  1A1B               	xorwf	(___flsub@a+2)^0,f,c
  1733  001E86  0E80               	movlw	128
  1734  001E88  1A1C               	xorwf	(___flsub@a+3)^0,f,c
  1735  001E8A  C015  F005         	movff	___flsub@b,___fladd@b
  1736  001E8E  C016  F006         	movff	___flsub@b+1,___fladd@b+1
  1737  001E92  C017  F007         	movff	___flsub@b+2,___fladd@b+2
  1738  001E96  C018  F008         	movff	___flsub@b+3,___fladd@b+3
  1739  001E9A  C019  F009         	movff	___flsub@a,___fladd@a
  1740  001E9E  C01A  F00A         	movff	___flsub@a+1,___fladd@a+1
  1741  001EA2  C01B  F00B         	movff	___flsub@a+2,___fladd@a+2
  1742  001EA6  C01C  F00C         	movff	___flsub@a+3,___fladd@a+3
  1743  001EAA  EC08  F004         	call	___fladd	;wreg free
  1744  001EAE  C005  F015         	movff	?___fladd,?___flsub
  1745  001EB2  C006  F016         	movff	?___fladd+1,?___flsub+1
  1746  001EB6  C007  F017         	movff	?___fladd+2,?___flsub+2
  1747  001EBA  C008  F018         	movff	?___fladd+3,?___flsub+3
  1748  001EBE  0012               	return		;funcret
  1749  001EC0                     __end_of___flsub:
  1750                           	callstack 0
  1751                           
  1752 ;; *************** function ___fladd *****************
  1753 ;; Defined at:
  1754 ;;		line 10 in file "C:\Program Files\Microchip\xc8\v2.32\pic\sources\c99\common\sprcadd.c"
  1755 ;; Parameters:    Size  Location     Type
  1756 ;;  b               4    4[COMRAM] unsigned char 
  1757 ;;  a               4    8[COMRAM] unsigned char 
  1758 ;; Auto vars:     Size  Location     Type
  1759 ;;  grs             1   19[COMRAM] unsigned char 
  1760 ;;  bexp            1   18[COMRAM] unsigned char 
  1761 ;;  aexp            1   17[COMRAM] unsigned char 
  1762 ;;  signs           1   16[COMRAM] unsigned char 
  1763 ;; Return value:  Size  Location     Type
  1764 ;;                  4    4[COMRAM] unsigned char 
  1765 ;; Registers used:
  1766 ;;		wreg, status,2, status,0
  1767 ;; Tracked objects:
  1768 ;;		On entry : 0/0
  1769 ;;		On exit  : 0/0
  1770 ;;		Unchanged: 0/0
  1771 ;; Data sizes:     COMRAM   BANK0   BANK1   BANK2   BANK3   BANK4   BANK5   BANK6   BANK7
  1772 ;;      Params:         8       0       0       0       0       0       0       0       0
  1773 ;;      Locals:         4       0       0       0       0       0       0       0       0
  1774 ;;      Temps:          4       0       0       0       0       0       0       0       0
  1775 ;;      Totals:        16       0       0       0       0       0       0       0       0
  1776 ;;Total ram usage:       16 bytes
  1777 ;; Hardware stack levels used: 1
  1778 ;; Hardware stack levels required when called: 4
  1779 ;; This function calls:
  1780 ;;		Nothing
  1781 ;; This function is called by:
  1782 ;;		_get_corriente_AC
  1783 ;;		___flsub
  1784 ;;		_trip_protec_current
  1785 ;; This function uses a non-reentrant model
  1786 ;;
  1787                           
  1788                           	psect	text5
  1789  000810                     __ptext5:
  1790                           	callstack 0
  1791  000810                     ___fladd:
  1792                           	callstack 23
  1793  000810  5008               	movf	(___fladd@b+3)^0,w,c
  1794  000812  0B80               	andlw	128
  1795  000814  6E11               	movwf	___fladd@signs^0,c
  1796  000816  5008               	movf	(___fladd@b+3)^0,w,c
  1797  000818  2408               	addwf	(___fladd@b+3)^0,w,c
  1798  00081A  6E13               	movwf	___fladd@bexp^0,c
  1799  00081C  AE07               	btfss	(___fladd@b+2)^0,7,c
  1800  00081E  EF13  F004         	goto	u2651
  1801  000822  EF15  F004         	goto	u2650
  1802  000826                     u2651:
  1803  000826  EF16  F004         	goto	l3058
  1804  00082A                     u2650:
  1805  00082A  8013               	bsf	___fladd@bexp^0,0,c
  1806  00082C                     l3058:
  1807  00082C  5013               	movf	___fladd@bexp^0,w,c
  1808  00082E  B4D8               	btfsc	status,2,c
  1809  000830  EF1C  F004         	goto	u2661
  1810  000834  EF1E  F004         	goto	u2660
  1811  000838                     u2661:
  1812  000838  EF33  F004         	goto	l3068
  1813  00083C                     u2660:
  1814  00083C  2813               	incf	___fladd@bexp^0,w,c
  1815  00083E  A4D8               	btfss	status,2,c
  1816  000840  EF24  F004         	goto	u2671
  1817  000844  EF26  F004         	goto	u2670
  1818  000848                     u2671:
  1819  000848  EF2E  F004         	goto	l3064
  1820  00084C                     u2670:
  1821  00084C  0E00               	movlw	0
  1822  00084E  6E05               	movwf	___fladd@b^0,c
  1823  000850  0E00               	movlw	0
  1824  000852  6E06               	movwf	(___fladd@b+1)^0,c
  1825  000854  0E00               	movlw	0
  1826  000856  6E07               	movwf	(___fladd@b+2)^0,c
  1827  000858  0E00               	movlw	0
  1828  00085A  6E08               	movwf	(___fladd@b+3)^0,c
  1829  00085C                     l3064:
  1830  00085C  8E07               	bsf	(___fladd@b+2)^0,7,c
  1831  00085E  0E00               	movlw	0
  1832  000860  6E08               	movwf	(___fladd@b+3)^0,c
  1833  000862  EF3B  F004         	goto	l3070
  1834  000866                     l3068:
  1835  000866  0E00               	movlw	0
  1836  000868  6E05               	movwf	___fladd@b^0,c
  1837  00086A  0E00               	movlw	0
  1838  00086C  6E06               	movwf	(___fladd@b+1)^0,c
  1839  00086E  0E00               	movlw	0
  1840  000870  6E07               	movwf	(___fladd@b+2)^0,c
  1841  000872  0E00               	movlw	0
  1842  000874  6E08               	movwf	(___fladd@b+3)^0,c
  1843  000876                     l3070:
  1844  000876  500C               	movf	(___fladd@a+3)^0,w,c
  1845  000878  0B80               	andlw	128
  1846  00087A  6E12               	movwf	___fladd@aexp^0,c
  1847  00087C  5011               	movf	___fladd@signs^0,w,c
  1848  00087E  1812               	xorwf	___fladd@aexp^0,w,c
  1849  000880  B4D8               	btfsc	status,2,c
  1850  000882  EF45  F004         	goto	u2681
  1851  000886  EF47  F004         	goto	u2680
  1852  00088A                     u2681:
  1853  00088A  EF48  F004         	goto	l3076
  1854  00088E                     u2680:
  1855  00088E  8C11               	bsf	___fladd@signs^0,6,c
  1856  000890                     l3076:
  1857  000890  500C               	movf	(___fladd@a+3)^0,w,c
  1858  000892  240C               	addwf	(___fladd@a+3)^0,w,c
  1859  000894  6E12               	movwf	___fladd@aexp^0,c
  1860  000896  AE0B               	btfss	(___fladd@a+2)^0,7,c
  1861  000898  EF50  F004         	goto	u2691
  1862  00089C  EF52  F004         	goto	u2690
  1863  0008A0                     u2691:
  1864  0008A0  EF53  F004         	goto	l3082
  1865  0008A4                     u2690:
  1866  0008A4  8012               	bsf	___fladd@aexp^0,0,c
  1867  0008A6                     l3082:
  1868  0008A6  5012               	movf	___fladd@aexp^0,w,c
  1869  0008A8  B4D8               	btfsc	status,2,c
  1870  0008AA  EF59  F004         	goto	u2701
  1871  0008AE  EF5B  F004         	goto	u2700
  1872  0008B2                     u2701:
  1873  0008B2  EF70  F004         	goto	l3092
  1874  0008B6                     u2700:
  1875  0008B6  2812               	incf	___fladd@aexp^0,w,c
  1876  0008B8  A4D8               	btfss	status,2,c
  1877  0008BA  EF61  F004         	goto	u2711
  1878  0008BE  EF63  F004         	goto	u2710
  1879  0008C2                     u2711:
  1880  0008C2  EF6B  F004         	goto	l3088
  1881  0008C6                     u2710:
  1882  0008C6  0E00               	movlw	0
  1883  0008C8  6E09               	movwf	___fladd@a^0,c
  1884  0008CA  0E00               	movlw	0
  1885  0008CC  6E0A               	movwf	(___fladd@a+1)^0,c
  1886  0008CE  0E00               	movlw	0
  1887  0008D0  6E0B               	movwf	(___fladd@a+2)^0,c
  1888  0008D2  0E00               	movlw	0
  1889  0008D4  6E0C               	movwf	(___fladd@a+3)^0,c
  1890  0008D6                     l3088:
  1891  0008D6  8E0B               	bsf	(___fladd@a+2)^0,7,c
  1892  0008D8  0E00               	movlw	0
  1893  0008DA  6E0C               	movwf	(___fladd@a+3)^0,c
  1894  0008DC  EF78  F004         	goto	l3094
  1895  0008E0                     l3092:
  1896  0008E0  0E00               	movlw	0
  1897  0008E2  6E09               	movwf	___fladd@a^0,c
  1898  0008E4  0E00               	movlw	0
  1899  0008E6  6E0A               	movwf	(___fladd@a+1)^0,c
  1900  0008E8  0E00               	movlw	0
  1901  0008EA  6E0B               	movwf	(___fladd@a+2)^0,c
  1902  0008EC  0E00               	movlw	0
  1903  0008EE  6E0C               	movwf	(___fladd@a+3)^0,c
  1904  0008F0                     l3094:
  1905  0008F0  5013               	movf	___fladd@bexp^0,w,c
  1906  0008F2  5C12               	subwf	___fladd@aexp^0,w,c
  1907  0008F4  B0D8               	btfsc	status,0,c
  1908  0008F6  EF7F  F004         	goto	u2721
  1909  0008FA  EF81  F004         	goto	u2720
  1910  0008FE                     u2721:
  1911  0008FE  EFA8  F004         	goto	l3130
  1912  000902                     u2720:
  1913  000902  AC11               	btfss	___fladd@signs^0,6,c
  1914  000904  EF86  F004         	goto	u2731
  1915  000908  EF88  F004         	goto	u2730
  1916  00090C                     u2731:
  1917  00090C  EF8A  F004         	goto	l3100
  1918  000910                     u2730:
  1919  000910  0E80               	movlw	128
  1920  000912  1A11               	xorwf	___fladd@signs^0,f,c
  1921  000914                     l3100:
  1922  000914  C013  F014         	movff	___fladd@bexp,___fladd@grs
  1923  000918  C012  F013         	movff	___fladd@aexp,___fladd@bexp
  1924  00091C  C014  F012         	movff	___fladd@grs,___fladd@aexp
  1925  000920  C005  F014         	movff	___fladd@b,___fladd@grs
  1926  000924  C009  F005         	movff	___fladd@a,___fladd@b
  1927  000928  C014  F009         	movff	___fladd@grs,___fladd@a
  1928  00092C  C006  F014         	movff	___fladd@b+1,___fladd@grs
  1929  000930  C00A  F006         	movff	___fladd@a+1,___fladd@b+1
  1930  000934  C014  F00A         	movff	___fladd@grs,___fladd@a+1
  1931  000938  C007  F014         	movff	___fladd@b+2,___fladd@grs
  1932  00093C  C00B  F007         	movff	___fladd@a+2,___fladd@b+2
  1933  000940  C014  F00B         	movff	___fladd@grs,___fladd@a+2
  1934  000944  C008  F014         	movff	___fladd@b+3,___fladd@grs
  1935  000948  C00C  F008         	movff	___fladd@a+3,___fladd@b+3
  1936  00094C  C014  F00C         	movff	___fladd@grs,___fladd@a+3
  1937  000950                     l3130:
  1938  000950  0E00               	movlw	0
  1939  000952  6E14               	movwf	___fladd@grs^0,c
  1940  000954  5013               	movf	___fladd@bexp^0,w,c
  1941  000956  C012  F00D         	movff	___fladd@aexp,??___fladd
  1942  00095A  6A0E               	clrf	(??___fladd+1)^0,c
  1943  00095C  5E0D               	subwf	??___fladd^0,f,c
  1944  00095E  0E00               	movlw	0
  1945  000960  5A0E               	subwfb	(??___fladd+1)^0,f,c
  1946  000962  BE0E               	btfsc	(??___fladd+1)^0,7,c
  1947  000964  EFBD  F004         	goto	u2741
  1948  000968  500E               	movf	(??___fladd+1)^0,w,c
  1949  00096A  E109               	bnz	u2740
  1950  00096C  0E1A               	movlw	26
  1951  00096E  5C0D               	subwf	??___fladd^0,w,c
  1952  000970  A0D8               	btfss	status,0,c
  1953  000972  EFBD  F004         	goto	u2741
  1954  000976  EFBF  F004         	goto	u2740
  1955  00097A                     u2741:
  1956  00097A  EFF6  F004         	goto	l1024
  1957  00097E                     u2740:
  1958  00097E  5005               	movf	___fladd@b^0,w,c
  1959  000980  1006               	iorwf	(___fladd@b+1)^0,w,c
  1960  000982  1007               	iorwf	(___fladd@b+2)^0,w,c
  1961  000984  1008               	iorwf	(___fladd@b+3)^0,w,c
  1962  000986  A4D8               	btfss	status,2,c
  1963  000988  EFC8  F004         	goto	u2751
  1964  00098C  EFCB  F004         	goto	u2750
  1965  000990                     u2751:
  1966  000990  0E01               	movlw	1
  1967  000992  EFCC  F004         	goto	u2760
  1968  000996                     u2750:
  1969  000996  0E00               	movlw	0
  1970  000998                     u2760:
  1971  000998  6E14               	movwf	___fladd@grs^0,c
  1972  00099A  0E00               	movlw	0
  1973  00099C  6E05               	movwf	___fladd@b^0,c
  1974  00099E  0E00               	movlw	0
  1975  0009A0  6E06               	movwf	(___fladd@b+1)^0,c
  1976  0009A2  0E00               	movlw	0
  1977  0009A4  6E07               	movwf	(___fladd@b+2)^0,c
  1978  0009A6  0E00               	movlw	0
  1979  0009A8  6E08               	movwf	(___fladd@b+3)^0,c
  1980  0009AA  C012  F013         	movff	___fladd@aexp,___fladd@bexp
  1981  0009AE  EFFF  F004         	goto	l1023
  1982  0009B2                     l1025:
  1983  0009B2  A014               	btfss	___fladd@grs^0,0,c
  1984  0009B4  EFDE  F004         	goto	u2771
  1985  0009B8  EFE0  F004         	goto	u2770
  1986  0009BC                     u2771:
  1987  0009BC  EFE6  F004         	goto	l3142
  1988  0009C0                     u2770:
  1989  0009C0  90D8               	bcf	status,0,c
  1990  0009C2  3014               	rrcf	___fladd@grs^0,w,c
  1991  0009C4  0901               	iorlw	1
  1992  0009C6  6E14               	movwf	___fladd@grs^0,c
  1993  0009C8  EFE8  F004         	goto	l3144
  1994  0009CC                     l3142:
  1995  0009CC  90D8               	bcf	status,0,c
  1996  0009CE  3214               	rrcf	___fladd@grs^0,f,c
  1997  0009D0                     l3144:
  1998  0009D0  A005               	btfss	___fladd@b^0,0,c
  1999  0009D2  EFED  F004         	goto	u2781
  2000  0009D6  EFEF  F004         	goto	u2780
  2001  0009DA                     u2781:
  2002  0009DA  EFF0  F004         	goto	l3148
  2003  0009DE                     u2780:
  2004  0009DE  8E14               	bsf	___fladd@grs^0,7,c
  2005  0009E0                     l3148:
  2006  0009E0  3408               	rlcf	(___fladd@b+3)^0,w,c
  2007  0009E2  3208               	rrcf	(___fladd@b+3)^0,f,c
  2008  0009E4  3207               	rrcf	(___fladd@b+2)^0,f,c
  2009  0009E6  3206               	rrcf	(___fladd@b+1)^0,f,c
  2010  0009E8  3205               	rrcf	___fladd@b^0,f,c
  2011  0009EA  2A13               	incf	___fladd@bexp^0,f,c
  2012  0009EC                     l1024:
  2013  0009EC  5012               	movf	___fladd@aexp^0,w,c
  2014  0009EE  5C13               	subwf	___fladd@bexp^0,w,c
  2015  0009F0  A0D8               	btfss	status,0,c
  2016  0009F2  EFFD  F004         	goto	u2791
  2017  0009F6  EFFF  F004         	goto	u2790
  2018  0009FA                     u2791:
  2019  0009FA  EFD9  F004         	goto	l1025
  2020  0009FE                     u2790:
  2021  0009FE                     l1023:
  2022  0009FE  BC11               	btfsc	___fladd@signs^0,6,c
  2023  000A00  EF04  F005         	goto	u2801
  2024  000A04  EF06  F005         	goto	u2800
  2025  000A08                     u2801:
  2026  000A08  EF46  F005         	goto	l3176
  2027  000A0C                     u2800:
  2028  000A0C  5013               	movf	___fladd@bexp^0,w,c
  2029  000A0E  A4D8               	btfss	status,2,c
  2030  000A10  EF0C  F005         	goto	u2811
  2031  000A14  EF0E  F005         	goto	u2810
  2032  000A18                     u2811:
  2033  000A18  EF18  F005         	goto	l3158
  2034  000A1C                     u2810:
  2035  000A1C  0E00               	movlw	0
  2036  000A1E  6E05               	movwf	?___fladd^0,c
  2037  000A20  0E00               	movlw	0
  2038  000A22  6E06               	movwf	(?___fladd+1)^0,c
  2039  000A24  0E00               	movlw	0
  2040  000A26  6E07               	movwf	(?___fladd+2)^0,c
  2041  000A28  0E00               	movlw	0
  2042  000A2A  6E08               	movwf	(?___fladd+3)^0,c
  2043  000A2C  EF67  F006         	goto	l1032
  2044  000A30                     l3158:
  2045  000A30  5009               	movf	___fladd@a^0,w,c
  2046  000A32  2605               	addwf	___fladd@b^0,f,c
  2047  000A34  500A               	movf	(___fladd@a+1)^0,w,c
  2048  000A36  2206               	addwfc	(___fladd@b+1)^0,f,c
  2049  000A38  500B               	movf	(___fladd@a+2)^0,w,c
  2050  000A3A  2207               	addwfc	(___fladd@b+2)^0,f,c
  2051  000A3C  500C               	movf	(___fladd@a+3)^0,w,c
  2052  000A3E  2208               	addwfc	(___fladd@b+3)^0,f,c
  2053  000A40  A008               	btfss	(___fladd@b+3)^0,0,c
  2054  000A42  EF25  F005         	goto	u2821
  2055  000A46  EF27  F005         	goto	u2820
  2056  000A4A                     u2821:
  2057  000A4A  EFD3  F005         	goto	l3212
  2058  000A4E                     u2820:
  2059  000A4E  A014               	btfss	___fladd@grs^0,0,c
  2060  000A50  EF2C  F005         	goto	u2831
  2061  000A54  EF2E  F005         	goto	u2830
  2062  000A58                     u2831:
  2063  000A58  EF34  F005         	goto	l3166
  2064  000A5C                     u2830:
  2065  000A5C  90D8               	bcf	status,0,c
  2066  000A5E  3014               	rrcf	___fladd@grs^0,w,c
  2067  000A60  0901               	iorlw	1
  2068  000A62  6E14               	movwf	___fladd@grs^0,c
  2069  000A64  EF36  F005         	goto	l3168
  2070  000A68                     l3166:
  2071  000A68  90D8               	bcf	status,0,c
  2072  000A6A  3214               	rrcf	___fladd@grs^0,f,c
  2073  000A6C                     l3168:
  2074  000A6C  A005               	btfss	___fladd@b^0,0,c
  2075  000A6E  EF3B  F005         	goto	u2841
  2076  000A72  EF3D  F005         	goto	u2840
  2077  000A76                     u2841:
  2078  000A76  EF3E  F005         	goto	l3172
  2079  000A7A                     u2840:
  2080  000A7A  8E14               	bsf	___fladd@grs^0,7,c
  2081  000A7C                     l3172:
  2082  000A7C  3408               	rlcf	(___fladd@b+3)^0,w,c
  2083  000A7E  3208               	rrcf	(___fladd@b+3)^0,f,c
  2084  000A80  3207               	rrcf	(___fladd@b+2)^0,f,c
  2085  000A82  3206               	rrcf	(___fladd@b+1)^0,f,c
  2086  000A84  3205               	rrcf	___fladd@b^0,f,c
  2087  000A86  2A13               	incf	___fladd@bexp^0,f,c
  2088  000A88  EFD3  F005         	goto	l3212
  2089  000A8C                     l3176:
  2090  000A8C  5009               	movf	___fladd@a^0,w,c
  2091  000A8E  5C05               	subwf	___fladd@b^0,w,c
  2092  000A90  500A               	movf	(___fladd@a+1)^0,w,c
  2093  000A92  5806               	subwfb	(___fladd@b+1)^0,w,c
  2094  000A94  500B               	movf	(___fladd@a+2)^0,w,c
  2095  000A96  5807               	subwfb	(___fladd@b+2)^0,w,c
  2096  000A98  5008               	movf	(___fladd@b+3)^0,w,c
  2097  000A9A  0A80               	xorlw	128
  2098  000A9C  6E0D               	movwf	??___fladd^0,c
  2099  000A9E  500C               	movf	(___fladd@a+3)^0,w,c
  2100  000AA0  0A80               	xorlw	128
  2101  000AA2  580D               	subwfb	??___fladd^0,w,c
  2102  000AA4  B0D8               	btfsc	status,0,c
  2103  000AA6  EF57  F005         	goto	u2851
  2104  000AAA  EF59  F005         	goto	u2850
  2105  000AAE                     u2851:
  2106  000AAE  EF84  F005         	goto	l3186
  2107  000AB2                     u2850:
  2108  000AB2  5005               	movf	___fladd@b^0,w,c
  2109  000AB4  5C09               	subwf	___fladd@a^0,w,c
  2110  000AB6  6E0D               	movwf	??___fladd^0,c
  2111  000AB8  5006               	movf	(___fladd@b+1)^0,w,c
  2112  000ABA  580A               	subwfb	(___fladd@a+1)^0,w,c
  2113  000ABC  6E0E               	movwf	(??___fladd+1)^0,c
  2114  000ABE  5007               	movf	(___fladd@b+2)^0,w,c
  2115  000AC0  580B               	subwfb	(___fladd@a+2)^0,w,c
  2116  000AC2  6E0F               	movwf	(??___fladd+2)^0,c
  2117  000AC4  5008               	movf	(___fladd@b+3)^0,w,c
  2118  000AC6  580C               	subwfb	(___fladd@a+3)^0,w,c
  2119  000AC8  6E10               	movwf	(??___fladd+3)^0,c
  2120  000ACA  0EFF               	movlw	255
  2121  000ACC  240D               	addwf	??___fladd^0,w,c
  2122  000ACE  6E05               	movwf	___fladd@b^0,c
  2123  000AD0  0EFF               	movlw	255
  2124  000AD2  200E               	addwfc	(??___fladd+1)^0,w,c
  2125  000AD4  6E06               	movwf	(___fladd@b+1)^0,c
  2126  000AD6  0EFF               	movlw	255
  2127  000AD8  200F               	addwfc	(??___fladd+2)^0,w,c
  2128  000ADA  6E07               	movwf	(___fladd@b+2)^0,c
  2129  000ADC  0EFF               	movlw	255
  2130  000ADE  2010               	addwfc	(??___fladd+3)^0,w,c
  2131  000AE0  6E08               	movwf	(___fladd@b+3)^0,c
  2132  000AE2  0E80               	movlw	128
  2133  000AE4  1A11               	xorwf	___fladd@signs^0,f,c
  2134  000AE6  6C14               	negf	___fladd@grs^0,c
  2135  000AE8  5014               	movf	___fladd@grs^0,w,c
  2136  000AEA  A4D8               	btfss	status,2,c
  2137  000AEC  EF7A  F005         	goto	u2861
  2138  000AF0  EF7C  F005         	goto	u2860
  2139  000AF4                     u2861:
  2140  000AF4  EF8C  F005         	goto	l1040
  2141  000AF8                     u2860:
  2142  000AF8  0E01               	movlw	1
  2143  000AFA  2605               	addwf	___fladd@b^0,f,c
  2144  000AFC  0E00               	movlw	0
  2145  000AFE  2206               	addwfc	(___fladd@b+1)^0,f,c
  2146  000B00  2207               	addwfc	(___fladd@b+2)^0,f,c
  2147  000B02  2208               	addwfc	(___fladd@b+3)^0,f,c
  2148  000B04  EF8C  F005         	goto	l1040
  2149  000B08                     l3186:
  2150  000B08  5009               	movf	___fladd@a^0,w,c
  2151  000B0A  5E05               	subwf	___fladd@b^0,f,c
  2152  000B0C  500A               	movf	(___fladd@a+1)^0,w,c
  2153  000B0E  5A06               	subwfb	(___fladd@b+1)^0,f,c
  2154  000B10  500B               	movf	(___fladd@a+2)^0,w,c
  2155  000B12  5A07               	subwfb	(___fladd@b+2)^0,f,c
  2156  000B14  500C               	movf	(___fladd@a+3)^0,w,c
  2157  000B16  5A08               	subwfb	(___fladd@b+3)^0,f,c
  2158  000B18                     l1040:
  2159  000B18  5005               	movf	___fladd@b^0,w,c
  2160  000B1A  1006               	iorwf	(___fladd@b+1)^0,w,c
  2161  000B1C  1007               	iorwf	(___fladd@b+2)^0,w,c
  2162  000B1E  1008               	iorwf	(___fladd@b+3)^0,w,c
  2163  000B20  A4D8               	btfss	status,2,c
  2164  000B22  EF95  F005         	goto	u2871
  2165  000B26  EF97  F005         	goto	u2870
  2166  000B2A                     u2871:
  2167  000B2A  EFCC  F005         	goto	l3210
  2168  000B2E                     u2870:
  2169  000B2E  5014               	movf	___fladd@grs^0,w,c
  2170  000B30  A4D8               	btfss	status,2,c
  2171  000B32  EF9D  F005         	goto	u2881
  2172  000B36  EF9F  F005         	goto	u2880
  2173  000B3A                     u2881:
  2174  000B3A  EFCC  F005         	goto	l3210
  2175  000B3E                     u2880:
  2176  000B3E  0E00               	movlw	0
  2177  000B40  6E05               	movwf	?___fladd^0,c
  2178  000B42  0E00               	movlw	0
  2179  000B44  6E06               	movwf	(?___fladd+1)^0,c
  2180  000B46  0E00               	movlw	0
  2181  000B48  6E07               	movwf	(?___fladd+2)^0,c
  2182  000B4A  0E00               	movlw	0
  2183  000B4C  6E08               	movwf	(?___fladd+3)^0,c
  2184  000B4E  EF67  F006         	goto	l1032
  2185  000B52                     l3194:
  2186  000B52  90D8               	bcf	status,0,c
  2187  000B54  3605               	rlcf	___fladd@b^0,f,c
  2188  000B56  3606               	rlcf	(___fladd@b+1)^0,f,c
  2189  000B58  3607               	rlcf	(___fladd@b+2)^0,f,c
  2190  000B5A  3608               	rlcf	(___fladd@b+3)^0,f,c
  2191  000B5C  AE14               	btfss	___fladd@grs^0,7,c
  2192  000B5E  EFB3  F005         	goto	u2891
  2193  000B62  EFB5  F005         	goto	u2890
  2194  000B66                     u2891:
  2195  000B66  EFB6  F005         	goto	l3200
  2196  000B6A                     u2890:
  2197  000B6A  8005               	bsf	___fladd@b^0,0,c
  2198  000B6C                     l3200:
  2199  000B6C  A014               	btfss	___fladd@grs^0,0,c
  2200  000B6E  EFBB  F005         	goto	u2901
  2201  000B72  EFBD  F005         	goto	u2900
  2202  000B76                     u2901:
  2203  000B76  EFC1  F005         	goto	l3204
  2204  000B7A                     u2900:
  2205  000B7A  80D8               	bsf	status,0,c
  2206  000B7C  3614               	rlcf	___fladd@grs^0,f,c
  2207  000B7E  EFC3  F005         	goto	l3206
  2208  000B82                     l3204:
  2209  000B82  90D8               	bcf	status,0,c
  2210  000B84  3614               	rlcf	___fladd@grs^0,f,c
  2211  000B86                     l3206:
  2212  000B86  5013               	movf	___fladd@bexp^0,w,c
  2213  000B88  B4D8               	btfsc	status,2,c
  2214  000B8A  EFC9  F005         	goto	u2911
  2215  000B8E  EFCB  F005         	goto	u2910
  2216  000B92                     u2911:
  2217  000B92  EFCC  F005         	goto	l3210
  2218  000B96                     u2910:
  2219  000B96  0613               	decf	___fladd@bexp^0,f,c
  2220  000B98                     l3210:
  2221  000B98  AE07               	btfss	(___fladd@b+2)^0,7,c
  2222  000B9A  EFD1  F005         	goto	u2921
  2223  000B9E  EFD3  F005         	goto	u2920
  2224  000BA2                     u2921:
  2225  000BA2  EFA9  F005         	goto	l3194
  2226  000BA6                     u2920:
  2227  000BA6                     l3212:
  2228  000BA6  0E00               	movlw	0
  2229  000BA8  6E12               	movwf	___fladd@aexp^0,c
  2230  000BAA  AE14               	btfss	___fladd@grs^0,7,c
  2231  000BAC  EFDA  F005         	goto	u2931
  2232  000BB0  EFDC  F005         	goto	u2930
  2233  000BB4                     u2931:
  2234  000BB4  EFF4  F005         	goto	l1049
  2235  000BB8                     u2930:
  2236  000BB8  C014  F00D         	movff	___fladd@grs,??___fladd
  2237  000BBC  0E7F               	movlw	127
  2238  000BBE  160D               	andwf	??___fladd^0,f,c
  2239  000BC0  B4D8               	btfsc	status,2,c
  2240  000BC2  EFE5  F005         	goto	u2941
  2241  000BC6  EFE7  F005         	goto	u2940
  2242  000BCA                     u2941:
  2243  000BCA  EFEB  F005         	goto	l1050
  2244  000BCE                     u2940:
  2245  000BCE                     l3218:
  2246  000BCE  0E01               	movlw	1
  2247  000BD0  6E12               	movwf	___fladd@aexp^0,c
  2248  000BD2  EFF4  F005         	goto	l1049
  2249  000BD6                     l1050:
  2250  000BD6  A005               	btfss	___fladd@b^0,0,c
  2251  000BD8  EFF0  F005         	goto	u2951
  2252  000BDC  EFF2  F005         	goto	u2950
  2253  000BE0                     u2951:
  2254  000BE0  EFF4  F005         	goto	l1049
  2255  000BE4                     u2950:
  2256  000BE4  EFE7  F005         	goto	l3218
  2257  000BE8                     l1049:
  2258  000BE8  5012               	movf	___fladd@aexp^0,w,c
  2259  000BEA  B4D8               	btfsc	status,2,c
  2260  000BEC  EFFA  F005         	goto	u2961
  2261  000BF0  EFFC  F005         	goto	u2960
  2262  000BF4                     u2961:
  2263  000BF4  EF27  F006         	goto	l3230
  2264  000BF8                     u2960:
  2265  000BF8  0E01               	movlw	1
  2266  000BFA  2605               	addwf	___fladd@b^0,f,c
  2267  000BFC  0E00               	movlw	0
  2268  000BFE  2206               	addwfc	(___fladd@b+1)^0,f,c
  2269  000C00  2207               	addwfc	(___fladd@b+2)^0,f,c
  2270  000C02  2208               	addwfc	(___fladd@b+3)^0,f,c
  2271  000C04  A008               	btfss	(___fladd@b+3)^0,0,c
  2272  000C06  EF07  F006         	goto	u2971
  2273  000C0A  EF09  F006         	goto	u2970
  2274  000C0E                     u2971:
  2275  000C0E  EF27  F006         	goto	l3230
  2276  000C12                     u2970:
  2277  000C12  C005  F00D         	movff	___fladd@b,??___fladd
  2278  000C16  C006  F00E         	movff	___fladd@b+1,??___fladd+1
  2279  000C1A  C007  F00F         	movff	___fladd@b+2,??___fladd+2
  2280  000C1E  C008  F010         	movff	___fladd@b+3,??___fladd+3
  2281  000C22  3410               	rlcf	(??___fladd+3)^0,w,c
  2282  000C24  3210               	rrcf	(??___fladd+3)^0,f,c
  2283  000C26  320F               	rrcf	(??___fladd+2)^0,f,c
  2284  000C28  320E               	rrcf	(??___fladd+1)^0,f,c
  2285  000C2A  320D               	rrcf	??___fladd^0,f,c
  2286  000C2C  C00D  F005         	movff	??___fladd,___fladd@b
  2287  000C30  C00E  F006         	movff	??___fladd+1,___fladd@b+1
  2288  000C34  C00F  F007         	movff	??___fladd+2,___fladd@b+2
  2289  000C38  C010  F008         	movff	??___fladd+3,___fladd@b+3
  2290  000C3C  2813               	incf	___fladd@bexp^0,w,c
  2291  000C3E  B4D8               	btfsc	status,2,c
  2292  000C40  EF24  F006         	goto	u2981
  2293  000C44  EF26  F006         	goto	u2980
  2294  000C48                     u2981:
  2295  000C48  EF27  F006         	goto	l3230
  2296  000C4C                     u2980:
  2297  000C4C  2A13               	incf	___fladd@bexp^0,f,c
  2298  000C4E                     l3230:
  2299  000C4E  2813               	incf	___fladd@bexp^0,w,c
  2300  000C50  B4D8               	btfsc	status,2,c
  2301  000C52  EF2D  F006         	goto	u2991
  2302  000C56  EF2F  F006         	goto	u2990
  2303  000C5A                     u2991:
  2304  000C5A  EF37  F006         	goto	l3234
  2305  000C5E                     u2990:
  2306  000C5E  5013               	movf	___fladd@bexp^0,w,c
  2307  000C60  A4D8               	btfss	status,2,c
  2308  000C62  EF35  F006         	goto	u3001
  2309  000C66  EF37  F006         	goto	u3000
  2310  000C6A                     u3001:
  2311  000C6A  EF49  F006         	goto	l3238
  2312  000C6E                     u3000:
  2313  000C6E                     l3234:
  2314  000C6E  0E00               	movlw	0
  2315  000C70  6E05               	movwf	___fladd@b^0,c
  2316  000C72  0E00               	movlw	0
  2317  000C74  6E06               	movwf	(___fladd@b+1)^0,c
  2318  000C76  0E00               	movlw	0
  2319  000C78  6E07               	movwf	(___fladd@b+2)^0,c
  2320  000C7A  0E00               	movlw	0
  2321  000C7C  6E08               	movwf	(___fladd@b+3)^0,c
  2322  000C7E  5013               	movf	___fladd@bexp^0,w,c
  2323  000C80  A4D8               	btfss	status,2,c
  2324  000C82  EF45  F006         	goto	u3011
  2325  000C86  EF47  F006         	goto	u3010
  2326  000C8A                     u3011:
  2327  000C8A  EF49  F006         	goto	l3238
  2328  000C8E                     u3010:
  2329  000C8E  0E00               	movlw	0
  2330  000C90  6E11               	movwf	___fladd@signs^0,c
  2331  000C92                     l3238:
  2332  000C92  A013               	btfss	___fladd@bexp^0,0,c
  2333  000C94  EF4E  F006         	goto	u3021
  2334  000C98  EF50  F006         	goto	u3020
  2335  000C9C                     u3021:
  2336  000C9C  EF53  F006         	goto	l3242
  2337  000CA0                     u3020:
  2338  000CA0  8E07               	bsf	(___fladd@b+2)^0,7,c
  2339  000CA2  EF54  F006         	goto	l3244
  2340  000CA6                     l3242:
  2341  000CA6  9E07               	bcf	(___fladd@b+2)^0,7,c
  2342  000CA8                     l3244:
  2343  000CA8  90D8               	bcf	status,0,c
  2344  000CAA  3013               	rrcf	___fladd@bexp^0,w,c
  2345  000CAC  6E08               	movwf	(___fladd@b+3)^0,c
  2346  000CAE  AE11               	btfss	___fladd@signs^0,7,c
  2347  000CB0  EF5C  F006         	goto	u3031
  2348  000CB4  EF5E  F006         	goto	u3030
  2349  000CB8                     u3031:
  2350  000CB8  EF5F  F006         	goto	l3250
  2351  000CBC                     u3030:
  2352  000CBC  8E08               	bsf	(___fladd@b+3)^0,7,c
  2353  000CBE                     l3250:
  2354  000CBE  C005  F005         	movff	___fladd@b,?___fladd
  2355  000CC2  C006  F006         	movff	___fladd@b+1,?___fladd+1
  2356  000CC6  C007  F007         	movff	___fladd@b+2,?___fladd+2
  2357  000CCA  C008  F008         	movff	___fladd@b+3,?___fladd+3
  2358  000CCE                     l1032:
  2359  000CCE  0012               	return		;funcret
  2360  000CD0                     __end_of___fladd:
  2361                           	callstack 0
  2362                           
  2363 ;; *************** function ___flmul *****************
  2364 ;; Defined at:
  2365 ;;		line 8 in file "C:\Program Files\Microchip\xc8\v2.32\pic\sources\c99\common\sprcmul.c"
  2366 ;; Parameters:    Size  Location     Type
  2367 ;;  b               4   18[COMRAM] unsigned char 
  2368 ;;  a               4   22[COMRAM] unsigned char 
  2369 ;; Auto vars:     Size  Location     Type
  2370 ;;  prod            4   37[COMRAM] struct .
  2371 ;;  grs             4   32[COMRAM] unsigned long 
  2372 ;;  temp            2   41[COMRAM] struct .
  2373 ;;  bexp            1   36[COMRAM] unsigned char 
  2374 ;;  aexp            1   31[COMRAM] unsigned char 
  2375 ;;  sign            1   30[COMRAM] unsigned char 
  2376 ;; Return value:  Size  Location     Type
  2377 ;;                  4   18[COMRAM] unsigned char 
  2378 ;; Registers used:
  2379 ;;		wreg, status,2, status,0, prodl, prodh
  2380 ;; Tracked objects:
  2381 ;;		On entry : 0/0
  2382 ;;		On exit  : 0/0
  2383 ;;		Unchanged: 0/0
  2384 ;; Data sizes:     COMRAM   BANK0   BANK1   BANK2   BANK3   BANK4   BANK5   BANK6   BANK7
  2385 ;;      Params:         8       0       0       0       0       0       0       0       0
  2386 ;;      Locals:        13       0       0       0       0       0       0       0       0
  2387 ;;      Temps:          4       0       0       0       0       0       0       0       0
  2388 ;;      Totals:        25       0       0       0       0       0       0       0       0
  2389 ;;Total ram usage:       25 bytes
  2390 ;; Hardware stack levels used: 1
  2391 ;; Hardware stack levels required when called: 4
  2392 ;; This function calls:
  2393 ;;		Nothing
  2394 ;; This function is called by:
  2395 ;;		_get_corriente_AC
  2396 ;; This function uses a non-reentrant model
  2397 ;;
  2398                           
  2399                           	psect	text6
  2400  000CD0                     __ptext6:
  2401                           	callstack 0
  2402  000CD0                     ___flmul:
  2403                           	callstack 24
  2404  000CD0  5016               	movf	(___flmul@b+3)^0,w,c
  2405  000CD2  0B80               	andlw	128
  2406  000CD4  6E1F               	movwf	___flmul@sign^0,c
  2407  000CD6  5016               	movf	(___flmul@b+3)^0,w,c
  2408  000CD8  2416               	addwf	(___flmul@b+3)^0,w,c
  2409  000CDA  6E25               	movwf	___flmul@bexp^0,c
  2410  000CDC  AE15               	btfss	(___flmul@b+2)^0,7,c
  2411  000CDE  EF73  F006         	goto	u3281
  2412  000CE2  EF75  F006         	goto	u3280
  2413  000CE6                     u3281:
  2414  000CE6  EF76  F006         	goto	l3408
  2415  000CEA                     u3280:
  2416  000CEA  8025               	bsf	___flmul@bexp^0,0,c
  2417  000CEC                     l3408:
  2418  000CEC  5025               	movf	___flmul@bexp^0,w,c
  2419  000CEE  B4D8               	btfsc	status,2,c
  2420  000CF0  EF7C  F006         	goto	u3291
  2421  000CF4  EF7E  F006         	goto	u3290
  2422  000CF8                     u3291:
  2423  000CF8  EF91  F006         	goto	l3416
  2424  000CFC                     u3290:
  2425  000CFC  2825               	incf	___flmul@bexp^0,w,c
  2426  000CFE  A4D8               	btfss	status,2,c
  2427  000D00  EF84  F006         	goto	u3301
  2428  000D04  EF86  F006         	goto	u3300
  2429  000D08                     u3301:
  2430  000D08  EF8E  F006         	goto	l3414
  2431  000D0C                     u3300:
  2432  000D0C  0E00               	movlw	0
  2433  000D0E  6E13               	movwf	___flmul@b^0,c
  2434  000D10  0E00               	movlw	0
  2435  000D12  6E14               	movwf	(___flmul@b+1)^0,c
  2436  000D14  0E00               	movlw	0
  2437  000D16  6E15               	movwf	(___flmul@b+2)^0,c
  2438  000D18  0E00               	movlw	0
  2439  000D1A  6E16               	movwf	(___flmul@b+3)^0,c
  2440  000D1C                     l3414:
  2441  000D1C  8E15               	bsf	(___flmul@b+2)^0,7,c
  2442  000D1E  EF99  F006         	goto	l3418
  2443  000D22                     l3416:
  2444  000D22  0E00               	movlw	0
  2445  000D24  6E13               	movwf	___flmul@b^0,c
  2446  000D26  0E00               	movlw	0
  2447  000D28  6E14               	movwf	(___flmul@b+1)^0,c
  2448  000D2A  0E00               	movlw	0
  2449  000D2C  6E15               	movwf	(___flmul@b+2)^0,c
  2450  000D2E  0E00               	movlw	0
  2451  000D30  6E16               	movwf	(___flmul@b+3)^0,c
  2452  000D32                     l3418:
  2453  000D32  501A               	movf	(___flmul@a+3)^0,w,c
  2454  000D34  0B80               	andlw	128
  2455  000D36  1A1F               	xorwf	___flmul@sign^0,f,c
  2456  000D38  501A               	movf	(___flmul@a+3)^0,w,c
  2457  000D3A  241A               	addwf	(___flmul@a+3)^0,w,c
  2458  000D3C  6E20               	movwf	___flmul@aexp^0,c
  2459  000D3E  AE19               	btfss	(___flmul@a+2)^0,7,c
  2460  000D40  EFA4  F006         	goto	u3311
  2461  000D44  EFA6  F006         	goto	u3310
  2462  000D48                     u3311:
  2463  000D48  EFA7  F006         	goto	l3426
  2464  000D4C                     u3310:
  2465  000D4C  8020               	bsf	___flmul@aexp^0,0,c
  2466  000D4E                     l3426:
  2467  000D4E  5020               	movf	___flmul@aexp^0,w,c
  2468  000D50  B4D8               	btfsc	status,2,c
  2469  000D52  EFAD  F006         	goto	u3321
  2470  000D56  EFAF  F006         	goto	u3320
  2471  000D5A                     u3321:
  2472  000D5A  EFC2  F006         	goto	l3434
  2473  000D5E                     u3320:
  2474  000D5E  2820               	incf	___flmul@aexp^0,w,c
  2475  000D60  A4D8               	btfss	status,2,c
  2476  000D62  EFB5  F006         	goto	u3331
  2477  000D66  EFB7  F006         	goto	u3330
  2478  000D6A                     u3331:
  2479  000D6A  EFBF  F006         	goto	l3432
  2480  000D6E                     u3330:
  2481  000D6E  0E00               	movlw	0
  2482  000D70  6E17               	movwf	___flmul@a^0,c
  2483  000D72  0E00               	movlw	0
  2484  000D74  6E18               	movwf	(___flmul@a+1)^0,c
  2485  000D76  0E00               	movlw	0
  2486  000D78  6E19               	movwf	(___flmul@a+2)^0,c
  2487  000D7A  0E00               	movlw	0
  2488  000D7C  6E1A               	movwf	(___flmul@a+3)^0,c
  2489  000D7E                     l3432:
  2490  000D7E  8E19               	bsf	(___flmul@a+2)^0,7,c
  2491  000D80  EFCA  F006         	goto	l1109
  2492  000D84                     l3434:
  2493  000D84  0E00               	movlw	0
  2494  000D86  6E17               	movwf	___flmul@a^0,c
  2495  000D88  0E00               	movlw	0
  2496  000D8A  6E18               	movwf	(___flmul@a+1)^0,c
  2497  000D8C  0E00               	movlw	0
  2498  000D8E  6E19               	movwf	(___flmul@a+2)^0,c
  2499  000D90  0E00               	movlw	0
  2500  000D92  6E1A               	movwf	(___flmul@a+3)^0,c
  2501  000D94                     l1109:
  2502  000D94  5020               	movf	___flmul@aexp^0,w,c
  2503  000D96  B4D8               	btfsc	status,2,c
  2504  000D98  EFD0  F006         	goto	u3341
  2505  000D9C  EFD2  F006         	goto	u3340
  2506  000DA0                     u3341:
  2507  000DA0  EFDA  F006         	goto	l3438
  2508  000DA4                     u3340:
  2509  000DA4  5025               	movf	___flmul@bexp^0,w,c
  2510  000DA6  A4D8               	btfss	status,2,c
  2511  000DA8  EFD8  F006         	goto	u3351
  2512  000DAC  EFDA  F006         	goto	u3350
  2513  000DB0                     u3351:
  2514  000DB0  EFE4  F006         	goto	l3442
  2515  000DB4                     u3350:
  2516  000DB4                     l3438:
  2517  000DB4  0E00               	movlw	0
  2518  000DB6  6E13               	movwf	?___flmul^0,c
  2519  000DB8  0E00               	movlw	0
  2520  000DBA  6E14               	movwf	(?___flmul+1)^0,c
  2521  000DBC  0E00               	movlw	0
  2522  000DBE  6E15               	movwf	(?___flmul+2)^0,c
  2523  000DC0  0E00               	movlw	0
  2524  000DC2  6E16               	movwf	(?___flmul+3)^0,c
  2525  000DC4  EF7C  F008         	goto	l1113
  2526  000DC8                     l3442:
  2527  000DC8  5019               	movf	(___flmul@a+2)^0,w,c
  2528  000DCA  0213               	mulwf	___flmul@b^0,c
  2529  000DCC  CFF3 F02A          	movff	prodl,___flmul@temp
  2530  000DD0  CFF4 F02B          	movff	prodh,___flmul@temp+1
  2531  000DD4  502A               	movf	___flmul@temp^0,w,c
  2532  000DD6  6E21               	movwf	___flmul@grs^0,c
  2533  000DD8  6A22               	clrf	(___flmul@grs+1)^0,c
  2534  000DDA  6A23               	clrf	(___flmul@grs+2)^0,c
  2535  000DDC  6A24               	clrf	(___flmul@grs+3)^0,c
  2536  000DDE  502B               	movf	(___flmul@temp+1)^0,w,c
  2537  000DE0  6E26               	movwf	___flmul@prod^0,c
  2538  000DE2  6A27               	clrf	(___flmul@prod+1)^0,c
  2539  000DE4  6A28               	clrf	(___flmul@prod+2)^0,c
  2540  000DE6  6A29               	clrf	(___flmul@prod+3)^0,c
  2541  000DE8  5018               	movf	(___flmul@a+1)^0,w,c
  2542  000DEA  0214               	mulwf	(___flmul@b+1)^0,c
  2543  000DEC  CFF3 F02A          	movff	prodl,___flmul@temp
  2544  000DF0  CFF4 F02B          	movff	prodh,___flmul@temp+1
  2545  000DF4  502A               	movf	___flmul@temp^0,w,c
  2546  000DF6  2621               	addwf	___flmul@grs^0,f,c
  2547  000DF8  0E00               	movlw	0
  2548  000DFA  2222               	addwfc	(___flmul@grs+1)^0,f,c
  2549  000DFC  2223               	addwfc	(___flmul@grs+2)^0,f,c
  2550  000DFE  2224               	addwfc	(___flmul@grs+3)^0,f,c
  2551  000E00  502B               	movf	(___flmul@temp+1)^0,w,c
  2552  000E02  2626               	addwf	___flmul@prod^0,f,c
  2553  000E04  0E00               	movlw	0
  2554  000E06  2227               	addwfc	(___flmul@prod+1)^0,f,c
  2555  000E08  2228               	addwfc	(___flmul@prod+2)^0,f,c
  2556  000E0A  2229               	addwfc	(___flmul@prod+3)^0,f,c
  2557  000E0C  5017               	movf	___flmul@a^0,w,c
  2558  000E0E  0215               	mulwf	(___flmul@b+2)^0,c
  2559  000E10  CFF3 F02A          	movff	prodl,___flmul@temp
  2560  000E14  CFF4 F02B          	movff	prodh,___flmul@temp+1
  2561  000E18  502A               	movf	___flmul@temp^0,w,c
  2562  000E1A  2621               	addwf	___flmul@grs^0,f,c
  2563  000E1C  0E00               	movlw	0
  2564  000E1E  2222               	addwfc	(___flmul@grs+1)^0,f,c
  2565  000E20  2223               	addwfc	(___flmul@grs+2)^0,f,c
  2566  000E22  2224               	addwfc	(___flmul@grs+3)^0,f,c
  2567  000E24  502B               	movf	(___flmul@temp+1)^0,w,c
  2568  000E26  2626               	addwf	___flmul@prod^0,f,c
  2569  000E28  0E00               	movlw	0
  2570  000E2A  2227               	addwfc	(___flmul@prod+1)^0,f,c
  2571  000E2C  2228               	addwfc	(___flmul@prod+2)^0,f,c
  2572  000E2E  2229               	addwfc	(___flmul@prod+3)^0,f,c
  2573  000E30  C023  F024         	movff	___flmul@grs+2,___flmul@grs+3
  2574  000E34  C022  F023         	movff	___flmul@grs+1,___flmul@grs+2
  2575  000E38  C021  F022         	movff	___flmul@grs,___flmul@grs+1
  2576  000E3C  6A21               	clrf	___flmul@grs^0,c
  2577  000E3E  5017               	movf	___flmul@a^0,w,c
  2578  000E40  0214               	mulwf	(___flmul@b+1)^0,c
  2579  000E42  CFF3 F02A          	movff	prodl,___flmul@temp
  2580  000E46  CFF4 F02B          	movff	prodh,___flmul@temp+1
  2581  000E4A  502A               	movf	___flmul@temp^0,w,c
  2582  000E4C  2621               	addwf	___flmul@grs^0,f,c
  2583  000E4E  502B               	movf	(___flmul@temp+1)^0,w,c
  2584  000E50  2222               	addwfc	(___flmul@grs+1)^0,f,c
  2585  000E52  0E00               	movlw	0
  2586  000E54  2223               	addwfc	(___flmul@grs+2)^0,f,c
  2587  000E56  0E00               	movlw	0
  2588  000E58  2224               	addwfc	(___flmul@grs+3)^0,f,c
  2589  000E5A  5018               	movf	(___flmul@a+1)^0,w,c
  2590  000E5C  0213               	mulwf	___flmul@b^0,c
  2591  000E5E  CFF3 F02A          	movff	prodl,___flmul@temp
  2592  000E62  CFF4 F02B          	movff	prodh,___flmul@temp+1
  2593  000E66  502A               	movf	___flmul@temp^0,w,c
  2594  000E68  2621               	addwf	___flmul@grs^0,f,c
  2595  000E6A  502B               	movf	(___flmul@temp+1)^0,w,c
  2596  000E6C  2222               	addwfc	(___flmul@grs+1)^0,f,c
  2597  000E6E  0E00               	movlw	0
  2598  000E70  2223               	addwfc	(___flmul@grs+2)^0,f,c
  2599  000E72  0E00               	movlw	0
  2600  000E74  2224               	addwfc	(___flmul@grs+3)^0,f,c
  2601  000E76  C023  F024         	movff	___flmul@grs+2,___flmul@grs+3
  2602  000E7A  C022  F023         	movff	___flmul@grs+1,___flmul@grs+2
  2603  000E7E  C021  F022         	movff	___flmul@grs,___flmul@grs+1
  2604  000E82  6A21               	clrf	___flmul@grs^0,c
  2605  000E84  5017               	movf	___flmul@a^0,w,c
  2606  000E86  0213               	mulwf	___flmul@b^0,c
  2607  000E88  CFF3 F02A          	movff	prodl,___flmul@temp
  2608  000E8C  CFF4 F02B          	movff	prodh,___flmul@temp+1
  2609  000E90  502A               	movf	___flmul@temp^0,w,c
  2610  000E92  2621               	addwf	___flmul@grs^0,f,c
  2611  000E94  502B               	movf	(___flmul@temp+1)^0,w,c
  2612  000E96  2222               	addwfc	(___flmul@grs+1)^0,f,c
  2613  000E98  0E00               	movlw	0
  2614  000E9A  2223               	addwfc	(___flmul@grs+2)^0,f,c
  2615  000E9C  0E00               	movlw	0
  2616  000E9E  2224               	addwfc	(___flmul@grs+3)^0,f,c
  2617  000EA0  5019               	movf	(___flmul@a+2)^0,w,c
  2618  000EA2  0214               	mulwf	(___flmul@b+1)^0,c
  2619  000EA4  CFF3 F02A          	movff	prodl,___flmul@temp
  2620  000EA8  CFF4 F02B          	movff	prodh,___flmul@temp+1
  2621  000EAC  502A               	movf	___flmul@temp^0,w,c
  2622  000EAE  2626               	addwf	___flmul@prod^0,f,c
  2623  000EB0  502B               	movf	(___flmul@temp+1)^0,w,c
  2624  000EB2  2227               	addwfc	(___flmul@prod+1)^0,f,c
  2625  000EB4  0E00               	movlw	0
  2626  000EB6  2228               	addwfc	(___flmul@prod+2)^0,f,c
  2627  000EB8  0E00               	movlw	0
  2628  000EBA  2229               	addwfc	(___flmul@prod+3)^0,f,c
  2629  000EBC  5018               	movf	(___flmul@a+1)^0,w,c
  2630  000EBE  0215               	mulwf	(___flmul@b+2)^0,c
  2631  000EC0  CFF3 F02A          	movff	prodl,___flmul@temp
  2632  000EC4  CFF4 F02B          	movff	prodh,___flmul@temp+1
  2633  000EC8  502A               	movf	___flmul@temp^0,w,c
  2634  000ECA  2626               	addwf	___flmul@prod^0,f,c
  2635  000ECC  502B               	movf	(___flmul@temp+1)^0,w,c
  2636  000ECE  2227               	addwfc	(___flmul@prod+1)^0,f,c
  2637  000ED0  0E00               	movlw	0
  2638  000ED2  2228               	addwfc	(___flmul@prod+2)^0,f,c
  2639  000ED4  0E00               	movlw	0
  2640  000ED6  2229               	addwfc	(___flmul@prod+3)^0,f,c
  2641  000ED8  5019               	movf	(___flmul@a+2)^0,w,c
  2642  000EDA  0215               	mulwf	(___flmul@b+2)^0,c
  2643  000EDC  CFF3 F02A          	movff	prodl,___flmul@temp
  2644  000EE0  CFF4 F02B          	movff	prodh,___flmul@temp+1
  2645  000EE4  502A               	movf	___flmul@temp^0,w,c
  2646  000EE6  6E1B               	movwf	??___flmul^0,c
  2647  000EE8  502B               	movf	(___flmul@temp+1)^0,w,c
  2648  000EEA  6E1C               	movwf	(??___flmul+1)^0,c
  2649  000EEC  6A1D               	clrf	(??___flmul+2)^0,c
  2650  000EEE  6A1E               	clrf	(??___flmul+3)^0,c
  2651  000EF0  C01D  F01E         	movff	??___flmul+2,??___flmul+3
  2652  000EF4  C01C  F01D         	movff	??___flmul+1,??___flmul+2
  2653  000EF8  C01B  F01C         	movff	??___flmul,??___flmul+1
  2654  000EFC  6A1B               	clrf	??___flmul^0,c
  2655  000EFE  501B               	movf	??___flmul^0,w,c
  2656  000F00  2626               	addwf	___flmul@prod^0,f,c
  2657  000F02  501C               	movf	(??___flmul+1)^0,w,c
  2658  000F04  2227               	addwfc	(___flmul@prod+1)^0,f,c
  2659  000F06  501D               	movf	(??___flmul+2)^0,w,c
  2660  000F08  2228               	addwfc	(___flmul@prod+2)^0,f,c
  2661  000F0A  501E               	movf	(??___flmul+3)^0,w,c
  2662  000F0C  2229               	addwfc	(___flmul@prod+3)^0,f,c
  2663  000F0E  C021  F01B         	movff	___flmul@grs,??___flmul
  2664  000F12  C022  F01C         	movff	___flmul@grs+1,??___flmul+1
  2665  000F16  C023  F01D         	movff	___flmul@grs+2,??___flmul+2
  2666  000F1A  C024  F01E         	movff	___flmul@grs+3,??___flmul+3
  2667  000F1E  0E19               	movlw	25
  2668  000F20  EF97  F007         	goto	u3360
  2669  000F24                     u3365:
  2670  000F24  90D8               	bcf	status,0,c
  2671  000F26  321E               	rrcf	(??___flmul+3)^0,f,c
  2672  000F28  321D               	rrcf	(??___flmul+2)^0,f,c
  2673  000F2A  321C               	rrcf	(??___flmul+1)^0,f,c
  2674  000F2C  321B               	rrcf	??___flmul^0,f,c
  2675  000F2E                     u3360:
  2676  000F2E  2EE8               	decfsz	wreg,f,c
  2677  000F30  EF92  F007         	goto	u3365
  2678  000F34  501B               	movf	??___flmul^0,w,c
  2679  000F36  2626               	addwf	___flmul@prod^0,f,c
  2680  000F38  501C               	movf	(??___flmul+1)^0,w,c
  2681  000F3A  2227               	addwfc	(___flmul@prod+1)^0,f,c
  2682  000F3C  501D               	movf	(??___flmul+2)^0,w,c
  2683  000F3E  2228               	addwfc	(___flmul@prod+2)^0,f,c
  2684  000F40  501E               	movf	(??___flmul+3)^0,w,c
  2685  000F42  2229               	addwfc	(___flmul@prod+3)^0,f,c
  2686  000F44  C023  F024         	movff	___flmul@grs+2,___flmul@grs+3
  2687  000F48  C022  F023         	movff	___flmul@grs+1,___flmul@grs+2
  2688  000F4C  C021  F022         	movff	___flmul@grs,___flmul@grs+1
  2689  000F50  6A21               	clrf	___flmul@grs^0,c
  2690  000F52  5020               	movf	___flmul@aexp^0,w,c
  2691  000F54  C025  F01B         	movff	___flmul@bexp,??___flmul
  2692  000F58  6A1C               	clrf	(??___flmul+1)^0,c
  2693  000F5A  261B               	addwf	??___flmul^0,f,c
  2694  000F5C  0E00               	movlw	0
  2695  000F5E  221C               	addwfc	(??___flmul+1)^0,f,c
  2696  000F60  0E82               	movlw	130
  2697  000F62  241B               	addwf	??___flmul^0,w,c
  2698  000F64  6E2A               	movwf	___flmul@temp^0,c
  2699  000F66  0EFF               	movlw	255
  2700  000F68  201C               	addwfc	(??___flmul+1)^0,w,c
  2701  000F6A  6E2B               	movwf	(___flmul@temp+1)^0,c
  2702  000F6C  EFCD  F007         	goto	l3490
  2703  000F70                     l3484:
  2704  000F70  90D8               	bcf	status,0,c
  2705  000F72  3626               	rlcf	___flmul@prod^0,f,c
  2706  000F74  3627               	rlcf	(___flmul@prod+1)^0,f,c
  2707  000F76  3628               	rlcf	(___flmul@prod+2)^0,f,c
  2708  000F78  3629               	rlcf	(___flmul@prod+3)^0,f,c
  2709  000F7A  AE24               	btfss	(___flmul@grs+3)^0,7,c
  2710  000F7C  EFC2  F007         	goto	u3371
  2711  000F80  EFC4  F007         	goto	u3370
  2712  000F84                     u3371:
  2713  000F84  EFC5  F007         	goto	l1116
  2714  000F88                     u3370:
  2715  000F88  8026               	bsf	___flmul@prod^0,0,c
  2716  000F8A                     l1116:
  2717  000F8A  90D8               	bcf	status,0,c
  2718  000F8C  3621               	rlcf	___flmul@grs^0,f,c
  2719  000F8E  3622               	rlcf	(___flmul@grs+1)^0,f,c
  2720  000F90  3623               	rlcf	(___flmul@grs+2)^0,f,c
  2721  000F92  3624               	rlcf	(___flmul@grs+3)^0,f,c
  2722  000F94  062A               	decf	___flmul@temp^0,f,c
  2723  000F96  A0D8               	btfss	status,0,c
  2724  000F98  062B               	decf	(___flmul@temp+1)^0,f,c
  2725  000F9A                     l3490:
  2726  000F9A  AE28               	btfss	(___flmul@prod+2)^0,7,c
  2727  000F9C  EFD2  F007         	goto	u3381
  2728  000FA0  EFD4  F007         	goto	u3380
  2729  000FA4                     u3381:
  2730  000FA4  EFB8  F007         	goto	l3484
  2731  000FA8                     u3380:
  2732  000FA8  0E00               	movlw	0
  2733  000FAA  6E20               	movwf	___flmul@aexp^0,c
  2734  000FAC  AE24               	btfss	(___flmul@grs+3)^0,7,c
  2735  000FAE  EFDB  F007         	goto	u3391
  2736  000FB2  EFDD  F007         	goto	u3390
  2737  000FB6                     u3391:
  2738  000FB6  EF01  F008         	goto	l1118
  2739  000FBA                     u3390:
  2740  000FBA  0EFF               	movlw	255
  2741  000FBC  1421               	andwf	___flmul@grs^0,w,c
  2742  000FBE  6E1B               	movwf	??___flmul^0,c
  2743  000FC0  0EFF               	movlw	255
  2744  000FC2  1422               	andwf	(___flmul@grs+1)^0,w,c
  2745  000FC4  6E1C               	movwf	(??___flmul+1)^0,c
  2746  000FC6  0EFF               	movlw	255
  2747  000FC8  1423               	andwf	(___flmul@grs+2)^0,w,c
  2748  000FCA  6E1D               	movwf	(??___flmul+2)^0,c
  2749  000FCC  0E7F               	movlw	127
  2750  000FCE  1424               	andwf	(___flmul@grs+3)^0,w,c
  2751  000FD0  6E1E               	movwf	(??___flmul+3)^0,c
  2752  000FD2  501B               	movf	??___flmul^0,w,c
  2753  000FD4  101C               	iorwf	(??___flmul+1)^0,w,c
  2754  000FD6  101D               	iorwf	(??___flmul+2)^0,w,c
  2755  000FD8  101E               	iorwf	(??___flmul+3)^0,w,c
  2756  000FDA  B4D8               	btfsc	status,2,c
  2757  000FDC  EFF2  F007         	goto	u3401
  2758  000FE0  EFF4  F007         	goto	u3400
  2759  000FE4                     u3401:
  2760  000FE4  EFF8  F007         	goto	l1119
  2761  000FE8                     u3400:
  2762  000FE8                     l3498:
  2763  000FE8  0E01               	movlw	1
  2764  000FEA  6E20               	movwf	___flmul@aexp^0,c
  2765  000FEC  EF01  F008         	goto	l1118
  2766  000FF0                     l1119:
  2767  000FF0  A026               	btfss	___flmul@prod^0,0,c
  2768  000FF2  EFFD  F007         	goto	u3411
  2769  000FF6  EFFF  F007         	goto	u3410
  2770  000FFA                     u3411:
  2771  000FFA  EF01  F008         	goto	l1118
  2772  000FFE                     u3410:
  2773  000FFE  EFF4  F007         	goto	l3498
  2774  001002                     l1118:
  2775  001002  5020               	movf	___flmul@aexp^0,w,c
  2776  001004  B4D8               	btfsc	status,2,c
  2777  001006  EF07  F008         	goto	u3421
  2778  00100A  EF09  F008         	goto	u3420
  2779  00100E                     u3421:
  2780  00100E  EF2D  F008         	goto	l3510
  2781  001012                     u3420:
  2782  001012  0E01               	movlw	1
  2783  001014  2626               	addwf	___flmul@prod^0,f,c
  2784  001016  0E00               	movlw	0
  2785  001018  2227               	addwfc	(___flmul@prod+1)^0,f,c
  2786  00101A  2228               	addwfc	(___flmul@prod+2)^0,f,c
  2787  00101C  2229               	addwfc	(___flmul@prod+3)^0,f,c
  2788  00101E  A029               	btfss	(___flmul@prod+3)^0,0,c
  2789  001020  EF14  F008         	goto	u3431
  2790  001024  EF16  F008         	goto	u3430
  2791  001028                     u3431:
  2792  001028  EF2D  F008         	goto	l3510
  2793  00102C                     u3430:
  2794  00102C  C026  F01B         	movff	___flmul@prod,??___flmul
  2795  001030  C027  F01C         	movff	___flmul@prod+1,??___flmul+1
  2796  001034  C028  F01D         	movff	___flmul@prod+2,??___flmul+2
  2797  001038  C029  F01E         	movff	___flmul@prod+3,??___flmul+3
  2798  00103C  341E               	rlcf	(??___flmul+3)^0,w,c
  2799  00103E  321E               	rrcf	(??___flmul+3)^0,f,c
  2800  001040  321D               	rrcf	(??___flmul+2)^0,f,c
  2801  001042  321C               	rrcf	(??___flmul+1)^0,f,c
  2802  001044  321B               	rrcf	??___flmul^0,f,c
  2803  001046  C01B  F026         	movff	??___flmul,___flmul@prod
  2804  00104A  C01C  F027         	movff	??___flmul+1,___flmul@prod+1
  2805  00104E  C01D  F028         	movff	??___flmul+2,___flmul@prod+2
  2806  001052  C01E  F029         	movff	??___flmul+3,___flmul@prod+3
  2807  001056  4A2A               	infsnz	___flmul@temp^0,f,c
  2808  001058  2A2B               	incf	(___flmul@temp+1)^0,f,c
  2809  00105A                     l3510:
  2810  00105A  BE2B               	btfsc	(___flmul@temp+1)^0,7,c
  2811  00105C  EF38  F008         	goto	u3441
  2812  001060  502B               	movf	(___flmul@temp+1)^0,w,c
  2813  001062  E108               	bnz	u3440
  2814  001064  282A               	incf	___flmul@temp^0,w,c
  2815  001066  A0D8               	btfss	status,0,c
  2816  001068  EF38  F008         	goto	u3441
  2817  00106C  EF3A  F008         	goto	u3440
  2818  001070                     u3441:
  2819  001070  EF44  F008         	goto	l3514
  2820  001074                     u3440:
  2821  001074  0E00               	movlw	0
  2822  001076  6E26               	movwf	___flmul@prod^0,c
  2823  001078  0E00               	movlw	0
  2824  00107A  6E27               	movwf	(___flmul@prod+1)^0,c
  2825  00107C  0E80               	movlw	128
  2826  00107E  6E28               	movwf	(___flmul@prod+2)^0,c
  2827  001080  0E7F               	movlw	127
  2828  001082  6E29               	movwf	(___flmul@prod+3)^0,c
  2829  001084  EF72  F008         	goto	l3526
  2830  001088                     l3514:
  2831  001088  BE2B               	btfsc	(___flmul@temp+1)^0,7,c
  2832  00108A  EF51  F008         	goto	u3450
  2833  00108E  502B               	movf	(___flmul@temp+1)^0,w,c
  2834  001090  E106               	bnz	u3451
  2835  001092  042A               	decf	___flmul@temp^0,w,c
  2836  001094  B0D8               	btfsc	status,0,c
  2837  001096  EF4F  F008         	goto	u3451
  2838  00109A  EF51  F008         	goto	u3450
  2839  00109E                     u3451:
  2840  00109E  EF5D  F008         	goto	l1126
  2841  0010A2                     u3450:
  2842  0010A2  0E00               	movlw	0
  2843  0010A4  6E26               	movwf	___flmul@prod^0,c
  2844  0010A6  0E00               	movlw	0
  2845  0010A8  6E27               	movwf	(___flmul@prod+1)^0,c
  2846  0010AA  0E00               	movlw	0
  2847  0010AC  6E28               	movwf	(___flmul@prod+2)^0,c
  2848  0010AE  0E00               	movlw	0
  2849  0010B0  6E29               	movwf	(___flmul@prod+3)^0,c
  2850  0010B2  0E00               	movlw	0
  2851  0010B4  6E1F               	movwf	___flmul@sign^0,c
  2852  0010B6  EF72  F008         	goto	l3526
  2853  0010BA                     l1126:
  2854  0010BA  C02A  F025         	movff	___flmul@temp,___flmul@bexp
  2855  0010BE  0EFF               	movlw	255
  2856  0010C0  1626               	andwf	___flmul@prod^0,f,c
  2857  0010C2  0EFF               	movlw	255
  2858  0010C4  1627               	andwf	(___flmul@prod+1)^0,f,c
  2859  0010C6  0E7F               	movlw	127
  2860  0010C8  1628               	andwf	(___flmul@prod+2)^0,f,c
  2861  0010CA  0E00               	movlw	0
  2862  0010CC  1629               	andwf	(___flmul@prod+3)^0,f,c
  2863  0010CE  A025               	btfss	___flmul@bexp^0,0,c
  2864  0010D0  EF6C  F008         	goto	u3461
  2865  0010D4  EF6E  F008         	goto	u3460
  2866  0010D8                     u3461:
  2867  0010D8  EF6F  F008         	goto	l3524
  2868  0010DC                     u3460:
  2869  0010DC  8E28               	bsf	(___flmul@prod+2)^0,7,c
  2870  0010DE                     l3524:
  2871  0010DE  90D8               	bcf	status,0,c
  2872  0010E0  3025               	rrcf	___flmul@bexp^0,w,c
  2873  0010E2  6E29               	movwf	(___flmul@prod+3)^0,c
  2874  0010E4                     l3526:
  2875  0010E4  501F               	movf	___flmul@sign^0,w,c
  2876  0010E6  1229               	iorwf	(___flmul@prod+3)^0,f,c
  2877  0010E8  C026  F013         	movff	___flmul@prod,?___flmul
  2878  0010EC  C027  F014         	movff	___flmul@prod+1,?___flmul+1
  2879  0010F0  C028  F015         	movff	___flmul@prod+2,?___flmul+2
  2880  0010F4  C029  F016         	movff	___flmul@prod+3,?___flmul+3
  2881  0010F8                     l1113:
  2882  0010F8  0012               	return		;funcret
  2883  0010FA                     __end_of___flmul:
  2884                           	callstack 0
  2885                           
  2886 ;; *************** function ___flge *****************
  2887 ;; Defined at:
  2888 ;;		line 4 in file "C:\Program Files\Microchip\xc8\v2.32\pic\sources\c99\common\flge.c"
  2889 ;; Parameters:    Size  Location     Type
  2890 ;;  ff1             4    4[COMRAM] unsigned char 
  2891 ;;  ff2             4    8[COMRAM] unsigned char 
  2892 ;; Auto vars:     Size  Location     Type
  2893 ;;		None
  2894 ;; Return value:  Size  Location     Type
  2895 ;;		None               void
  2896 ;; Registers used:
  2897 ;;		wreg, status,2, status,0
  2898 ;; Tracked objects:
  2899 ;;		On entry : 0/0
  2900 ;;		On exit  : 0/0
  2901 ;;		Unchanged: 0/0
  2902 ;; Data sizes:     COMRAM   BANK0   BANK1   BANK2   BANK3   BANK4   BANK5   BANK6   BANK7
  2903 ;;      Params:         8       0       0       0       0       0       0       0       0
  2904 ;;      Locals:         0       0       0       0       0       0       0       0       0
  2905 ;;      Temps:          4       0       0       0       0       0       0       0       0
  2906 ;;      Totals:        12       0       0       0       0       0       0       0       0
  2907 ;;Total ram usage:       12 bytes
  2908 ;; Hardware stack levels used: 1
  2909 ;; Hardware stack levels required when called: 4
  2910 ;; This function calls:
  2911 ;;		Nothing
  2912 ;; This function is called by:
  2913 ;;		_get_corriente_AC
  2914 ;;		_trip_protec_current
  2915 ;; This function uses a non-reentrant model
  2916 ;;
  2917                           
  2918                           	psect	text7
  2919  001B70                     __ptext7:
  2920                           	callstack 0
  2921  001B70                     ___flge:
  2922                           	callstack 24
  2923  001B70  0E00               	movlw	0
  2924  001B72  1405               	andwf	___flge@ff1^0,w,c
  2925  001B74  6E0D               	movwf	??___flge^0,c
  2926  001B76  0E00               	movlw	0
  2927  001B78  1406               	andwf	(___flge@ff1+1)^0,w,c
  2928  001B7A  6E0E               	movwf	(??___flge+1)^0,c
  2929  001B7C  0E80               	movlw	128
  2930  001B7E  1407               	andwf	(___flge@ff1+2)^0,w,c
  2931  001B80  6E0F               	movwf	(??___flge+2)^0,c
  2932  001B82  0E7F               	movlw	127
  2933  001B84  1408               	andwf	(___flge@ff1+3)^0,w,c
  2934  001B86  6E10               	movwf	(??___flge+3)^0,c
  2935  001B88  500D               	movf	??___flge^0,w,c
  2936  001B8A  100E               	iorwf	(??___flge+1)^0,w,c
  2937  001B8C  100F               	iorwf	(??___flge+2)^0,w,c
  2938  001B8E  1010               	iorwf	(??___flge+3)^0,w,c
  2939  001B90  A4D8               	btfss	status,2,c
  2940  001B92  EFCD  F00D         	goto	u3471
  2941  001B96  EFCF  F00D         	goto	u3470
  2942  001B9A                     u3471:
  2943  001B9A  EFD7  F00D         	goto	l3542
  2944  001B9E                     u3470:
  2945  001B9E  0E00               	movlw	0
  2946  001BA0  6E05               	movwf	___flge@ff1^0,c
  2947  001BA2  0E00               	movlw	0
  2948  001BA4  6E06               	movwf	(___flge@ff1+1)^0,c
  2949  001BA6  0E00               	movlw	0
  2950  001BA8  6E07               	movwf	(___flge@ff1+2)^0,c
  2951  001BAA  0E00               	movlw	0
  2952  001BAC  6E08               	movwf	(___flge@ff1+3)^0,c
  2953  001BAE                     l3542:
  2954  001BAE  0E00               	movlw	0
  2955  001BB0  1409               	andwf	___flge@ff2^0,w,c
  2956  001BB2  6E0D               	movwf	??___flge^0,c
  2957  001BB4  0E00               	movlw	0
  2958  001BB6  140A               	andwf	(___flge@ff2+1)^0,w,c
  2959  001BB8  6E0E               	movwf	(??___flge+1)^0,c
  2960  001BBA  0E80               	movlw	128
  2961  001BBC  140B               	andwf	(___flge@ff2+2)^0,w,c
  2962  001BBE  6E0F               	movwf	(??___flge+2)^0,c
  2963  001BC0  0E7F               	movlw	127
  2964  001BC2  140C               	andwf	(___flge@ff2+3)^0,w,c
  2965  001BC4  6E10               	movwf	(??___flge+3)^0,c
  2966  001BC6  500D               	movf	??___flge^0,w,c
  2967  001BC8  100E               	iorwf	(??___flge+1)^0,w,c
  2968  001BCA  100F               	iorwf	(??___flge+2)^0,w,c
  2969  001BCC  1010               	iorwf	(??___flge+3)^0,w,c
  2970  001BCE  A4D8               	btfss	status,2,c
  2971  001BD0  EFEC  F00D         	goto	u3481
  2972  001BD4  EFEE  F00D         	goto	u3480
  2973  001BD8                     u3481:
  2974  001BD8  EFF6  F00D         	goto	l3546
  2975  001BDC                     u3480:
  2976  001BDC  0E00               	movlw	0
  2977  001BDE  6E09               	movwf	___flge@ff2^0,c
  2978  001BE0  0E00               	movlw	0
  2979  001BE2  6E0A               	movwf	(___flge@ff2+1)^0,c
  2980  001BE4  0E00               	movlw	0
  2981  001BE6  6E0B               	movwf	(___flge@ff2+2)^0,c
  2982  001BE8  0E00               	movlw	0
  2983  001BEA  6E0C               	movwf	(___flge@ff2+3)^0,c
  2984  001BEC                     l3546:
  2985  001BEC  AE08               	btfss	(___flge@ff1+3)^0,7,c
  2986  001BEE  EFFB  F00D         	goto	u3491
  2987  001BF2  EFFD  F00D         	goto	u3490
  2988  001BF6                     u3491:
  2989  001BF6  EF06  F00E         	goto	l3550
  2990  001BFA                     u3490:
  2991  001BFA  6C05               	negf	___flge@ff1^0,c
  2992  001BFC  1E06               	comf	(___flge@ff1+1)^0,f,c
  2993  001BFE  B0D8               	btfsc	status,0,c
  2994  001C00  2A06               	incf	(___flge@ff1+1)^0,f,c
  2995  001C02  1E07               	comf	(___flge@ff1+2)^0,f,c
  2996  001C04  B0D8               	btfsc	status,0,c
  2997  001C06  2A07               	incf	(___flge@ff1+2)^0,f,c
  2998  001C08  0E80               	movlw	128
  2999  001C0A  5608               	subfwb	(___flge@ff1+3)^0,f,c
  3000  001C0C                     l3550:
  3001  001C0C  AE0C               	btfss	(___flge@ff2+3)^0,7,c
  3002  001C0E  EF0B  F00E         	goto	u3501
  3003  001C12  EF0D  F00E         	goto	u3500
  3004  001C16                     u3501:
  3005  001C16  EF16  F00E         	goto	l760
  3006  001C1A                     u3500:
  3007  001C1A  6C09               	negf	___flge@ff2^0,c
  3008  001C1C  1E0A               	comf	(___flge@ff2+1)^0,f,c
  3009  001C1E  B0D8               	btfsc	status,0,c
  3010  001C20  2A0A               	incf	(___flge@ff2+1)^0,f,c
  3011  001C22  1E0B               	comf	(___flge@ff2+2)^0,f,c
  3012  001C24  B0D8               	btfsc	status,0,c
  3013  001C26  2A0B               	incf	(___flge@ff2+2)^0,f,c
  3014  001C28  0E80               	movlw	128
  3015  001C2A  560C               	subfwb	(___flge@ff2+3)^0,f,c
  3016  001C2C                     l760:
  3017  001C2C  0E00               	movlw	0
  3018  001C2E  1A05               	xorwf	___flge@ff1^0,f,c
  3019  001C30  0E00               	movlw	0
  3020  001C32  1A06               	xorwf	(___flge@ff1+1)^0,f,c
  3021  001C34  0E00               	movlw	0
  3022  001C36  1A07               	xorwf	(___flge@ff1+2)^0,f,c
  3023  001C38  0E80               	movlw	128
  3024  001C3A  1A08               	xorwf	(___flge@ff1+3)^0,f,c
  3025  001C3C  0E00               	movlw	0
  3026  001C3E  1A09               	xorwf	___flge@ff2^0,f,c
  3027  001C40  0E00               	movlw	0
  3028  001C42  1A0A               	xorwf	(___flge@ff2+1)^0,f,c
  3029  001C44  0E00               	movlw	0
  3030  001C46  1A0B               	xorwf	(___flge@ff2+2)^0,f,c
  3031  001C48  0E80               	movlw	128
  3032  001C4A  1A0C               	xorwf	(___flge@ff2+3)^0,f,c
  3033  001C4C  5009               	movf	___flge@ff2^0,w,c
  3034  001C4E  5C05               	subwf	___flge@ff1^0,w,c
  3035  001C50  500A               	movf	(___flge@ff2+1)^0,w,c
  3036  001C52  5806               	subwfb	(___flge@ff1+1)^0,w,c
  3037  001C54  500B               	movf	(___flge@ff2+2)^0,w,c
  3038  001C56  5807               	subwfb	(___flge@ff1+2)^0,w,c
  3039  001C58  500C               	movf	(___flge@ff2+3)^0,w,c
  3040  001C5A  5808               	subwfb	(___flge@ff1+3)^0,w,c
  3041  001C5C  B0D8               	btfsc	status,0,c
  3042  001C5E  EF33  F00E         	goto	u3511
  3043  001C62  EF35  F00E         	goto	u3510
  3044  001C66                     u3511:
  3045  001C66  EF38  F00E         	goto	l3556
  3046  001C6A                     u3510:
  3047  001C6A  90D8               	bcf	status,0,c
  3048  001C6C  EF39  F00E         	goto	l765
  3049  001C70                     l3556:
  3050  001C70  80D8               	bsf	status,0,c
  3051  001C72                     l765:
  3052  001C72  0012               	return		;funcret
  3053  001C74                     __end_of___flge:
  3054                           	callstack 0
  3055                           
  3056 ;; *************** function ___fldiv *****************
  3057 ;; Defined at:
  3058 ;;		line 11 in file "C:\Program Files\Microchip\xc8\v2.32\pic\sources\c99\common\sprcdiv.c"
  3059 ;; Parameters:    Size  Location     Type
  3060 ;;  b               4   28[COMRAM] unsigned char 
  3061 ;;  a               4   32[COMRAM] unsigned char 
  3062 ;; Auto vars:     Size  Location     Type
  3063 ;;  grs             4   47[COMRAM] unsigned long 
  3064 ;;  rem             4   40[COMRAM] unsigned long 
  3065 ;;  new_exp         2   45[COMRAM] short 
  3066 ;;  aexp            1   52[COMRAM] unsigned char 
  3067 ;;  bexp            1   51[COMRAM] unsigned char 
  3068 ;;  sign            1   44[COMRAM] unsigned char 
  3069 ;; Return value:  Size  Location     Type
  3070 ;;                  4   28[COMRAM] unsigned char 
  3071 ;; Registers used:
  3072 ;;		wreg, status,2, status,0
  3073 ;; Tracked objects:
  3074 ;;		On entry : 0/0
  3075 ;;		On exit  : 0/0
  3076 ;;		Unchanged: 0/0
  3077 ;; Data sizes:     COMRAM   BANK0   BANK1   BANK2   BANK3   BANK4   BANK5   BANK6   BANK7
  3078 ;;      Params:         8       0       0       0       0       0       0       0       0
  3079 ;;      Locals:        13       0       0       0       0       0       0       0       0
  3080 ;;      Temps:          4       0       0       0       0       0       0       0       0
  3081 ;;      Totals:        25       0       0       0       0       0       0       0       0
  3082 ;;Total ram usage:       25 bytes
  3083 ;; Hardware stack levels used: 1
  3084 ;; Hardware stack levels required when called: 4
  3085 ;; This function calls:
  3086 ;;		Nothing
  3087 ;; This function is called by:
  3088 ;;		_get_corriente_AC
  3089 ;;		_trip_protec_current
  3090 ;; This function uses a non-reentrant model
  3091 ;;
  3092                           
  3093                           	psect	text8
  3094  0010FA                     __ptext8:
  3095                           	callstack 0
  3096  0010FA                     ___fldiv:
  3097                           	callstack 24
  3098  0010FA  5020               	movf	(___fldiv@b+3)^0,w,c
  3099  0010FC  0B80               	andlw	128
  3100  0010FE  6E2D               	movwf	___fldiv@sign^0,c
  3101  001100  5020               	movf	(___fldiv@b+3)^0,w,c
  3102  001102  2420               	addwf	(___fldiv@b+3)^0,w,c
  3103  001104  6E34               	movwf	___fldiv@bexp^0,c
  3104  001106  AE1F               	btfss	(___fldiv@b+2)^0,7,c
  3105  001108  EF88  F008         	goto	u3051
  3106  00110C  EF8A  F008         	goto	u3050
  3107  001110                     u3051:
  3108  001110  EF8B  F008         	goto	l3270
  3109  001114                     u3050:
  3110  001114  8034               	bsf	___fldiv@bexp^0,0,c
  3111  001116                     l3270:
  3112  001116  5034               	movf	___fldiv@bexp^0,w,c
  3113  001118  B4D8               	btfsc	status,2,c
  3114  00111A  EF91  F008         	goto	u3061
  3115  00111E  EF93  F008         	goto	u3060
  3116  001122                     u3061:
  3117  001122  EFA8  F008         	goto	l3280
  3118  001126                     u3060:
  3119  001126  2834               	incf	___fldiv@bexp^0,w,c
  3120  001128  A4D8               	btfss	status,2,c
  3121  00112A  EF99  F008         	goto	u3071
  3122  00112E  EF9B  F008         	goto	u3070
  3123  001132                     u3071:
  3124  001132  EFA3  F008         	goto	l3276
  3125  001136                     u3070:
  3126  001136  0E00               	movlw	0
  3127  001138  6E1D               	movwf	___fldiv@b^0,c
  3128  00113A  0E00               	movlw	0
  3129  00113C  6E1E               	movwf	(___fldiv@b+1)^0,c
  3130  00113E  0E00               	movlw	0
  3131  001140  6E1F               	movwf	(___fldiv@b+2)^0,c
  3132  001142  0E00               	movlw	0
  3133  001144  6E20               	movwf	(___fldiv@b+3)^0,c
  3134  001146                     l3276:
  3135  001146  8E1F               	bsf	(___fldiv@b+2)^0,7,c
  3136  001148  0E00               	movlw	0
  3137  00114A  6E20               	movwf	(___fldiv@b+3)^0,c
  3138  00114C  EFB0  F008         	goto	l3282
  3139  001150                     l3280:
  3140  001150  0E00               	movlw	0
  3141  001152  6E1D               	movwf	___fldiv@b^0,c
  3142  001154  0E00               	movlw	0
  3143  001156  6E1E               	movwf	(___fldiv@b+1)^0,c
  3144  001158  0E00               	movlw	0
  3145  00115A  6E1F               	movwf	(___fldiv@b+2)^0,c
  3146  00115C  0E00               	movlw	0
  3147  00115E  6E20               	movwf	(___fldiv@b+3)^0,c
  3148  001160                     l3282:
  3149  001160  5024               	movf	(___fldiv@a+3)^0,w,c
  3150  001162  0B80               	andlw	128
  3151  001164  1A2D               	xorwf	___fldiv@sign^0,f,c
  3152  001166  5024               	movf	(___fldiv@a+3)^0,w,c
  3153  001168  2424               	addwf	(___fldiv@a+3)^0,w,c
  3154  00116A  6E35               	movwf	___fldiv@aexp^0,c
  3155  00116C  AE23               	btfss	(___fldiv@a+2)^0,7,c
  3156  00116E  EFBB  F008         	goto	u3081
  3157  001172  EFBD  F008         	goto	u3080
  3158  001176                     u3081:
  3159  001176  EFBE  F008         	goto	l3290
  3160  00117A                     u3080:
  3161  00117A  8035               	bsf	___fldiv@aexp^0,0,c
  3162  00117C                     l3290:
  3163  00117C  5035               	movf	___fldiv@aexp^0,w,c
  3164  00117E  B4D8               	btfsc	status,2,c
  3165  001180  EFC4  F008         	goto	u3091
  3166  001184  EFC6  F008         	goto	u3090
  3167  001188                     u3091:
  3168  001188  EFDB  F008         	goto	l3300
  3169  00118C                     u3090:
  3170  00118C  2835               	incf	___fldiv@aexp^0,w,c
  3171  00118E  A4D8               	btfss	status,2,c
  3172  001190  EFCC  F008         	goto	u3101
  3173  001194  EFCE  F008         	goto	u3100
  3174  001198                     u3101:
  3175  001198  EFD6  F008         	goto	l3296
  3176  00119C                     u3100:
  3177  00119C  0E00               	movlw	0
  3178  00119E  6E21               	movwf	___fldiv@a^0,c
  3179  0011A0  0E00               	movlw	0
  3180  0011A2  6E22               	movwf	(___fldiv@a+1)^0,c
  3181  0011A4  0E00               	movlw	0
  3182  0011A6  6E23               	movwf	(___fldiv@a+2)^0,c
  3183  0011A8  0E00               	movlw	0
  3184  0011AA  6E24               	movwf	(___fldiv@a+3)^0,c
  3185  0011AC                     l3296:
  3186  0011AC  8E23               	bsf	(___fldiv@a+2)^0,7,c
  3187  0011AE  0E00               	movlw	0
  3188  0011B0  6E24               	movwf	(___fldiv@a+3)^0,c
  3189  0011B2  EFE3  F008         	goto	l3302
  3190  0011B6                     l3300:
  3191  0011B6  0E00               	movlw	0
  3192  0011B8  6E21               	movwf	___fldiv@a^0,c
  3193  0011BA  0E00               	movlw	0
  3194  0011BC  6E22               	movwf	(___fldiv@a+1)^0,c
  3195  0011BE  0E00               	movlw	0
  3196  0011C0  6E23               	movwf	(___fldiv@a+2)^0,c
  3197  0011C2  0E00               	movlw	0
  3198  0011C4  6E24               	movwf	(___fldiv@a+3)^0,c
  3199  0011C6                     l3302:
  3200  0011C6  5021               	movf	___fldiv@a^0,w,c
  3201  0011C8  1022               	iorwf	(___fldiv@a+1)^0,w,c
  3202  0011CA  1023               	iorwf	(___fldiv@a+2)^0,w,c
  3203  0011CC  1024               	iorwf	(___fldiv@a+3)^0,w,c
  3204  0011CE  A4D8               	btfss	status,2,c
  3205  0011D0  EFEC  F008         	goto	u3111
  3206  0011D4  EFEE  F008         	goto	u3110
  3207  0011D8                     u3111:
  3208  0011D8  EF06  F009         	goto	l3314
  3209  0011DC                     u3110:
  3210  0011DC  0E00               	movlw	0
  3211  0011DE  6E1D               	movwf	___fldiv@b^0,c
  3212  0011E0  0E00               	movlw	0
  3213  0011E2  6E1E               	movwf	(___fldiv@b+1)^0,c
  3214  0011E4  0E00               	movlw	0
  3215  0011E6  6E1F               	movwf	(___fldiv@b+2)^0,c
  3216  0011E8  0E00               	movlw	0
  3217  0011EA  6E20               	movwf	(___fldiv@b+3)^0,c
  3218  0011EC  0E80               	movlw	128
  3219  0011EE  121F               	iorwf	(___fldiv@b+2)^0,f,c
  3220  0011F0  0E7F               	movlw	127
  3221  0011F2  1220               	iorwf	(___fldiv@b+3)^0,f,c
  3222  0011F4                     l3308:
  3223  0011F4  502D               	movf	___fldiv@sign^0,w,c
  3224  0011F6  1220               	iorwf	(___fldiv@b+3)^0,f,c
  3225  0011F8  C01D  F01D         	movff	___fldiv@b,?___fldiv
  3226  0011FC  C01E  F01E         	movff	___fldiv@b+1,?___fldiv+1
  3227  001200  C01F  F01F         	movff	___fldiv@b+2,?___fldiv+2
  3228  001204  C020  F020         	movff	___fldiv@b+3,?___fldiv+3
  3229  001208  EF49  F00A         	goto	l1077
  3230  00120C                     l3314:
  3231  00120C  5034               	movf	___fldiv@bexp^0,w,c
  3232  00120E  A4D8               	btfss	status,2,c
  3233  001210  EF0C  F009         	goto	u3121
  3234  001214  EF0E  F009         	goto	u3120
  3235  001218                     u3121:
  3236  001218  EF18  F009         	goto	l3322
  3237  00121C                     u3120:
  3238  00121C  0E00               	movlw	0
  3239  00121E  6E1D               	movwf	?___fldiv^0,c
  3240  001220  0E00               	movlw	0
  3241  001222  6E1E               	movwf	(?___fldiv+1)^0,c
  3242  001224  0E00               	movlw	0
  3243  001226  6E1F               	movwf	(?___fldiv+2)^0,c
  3244  001228  0E00               	movlw	0
  3245  00122A  6E20               	movwf	(?___fldiv+3)^0,c
  3246  00122C  EF49  F00A         	goto	l1077
  3247  001230                     l3322:
  3248  001230  5035               	movf	___fldiv@aexp^0,w,c
  3249  001232  C034  F025         	movff	___fldiv@bexp,??___fldiv
  3250  001236  6A26               	clrf	(??___fldiv+1)^0,c
  3251  001238  5E25               	subwf	??___fldiv^0,f,c
  3252  00123A  0E00               	movlw	0
  3253  00123C  5A26               	subwfb	(??___fldiv+1)^0,f,c
  3254  00123E  0E7F               	movlw	127
  3255  001240  2425               	addwf	??___fldiv^0,w,c
  3256  001242  6E2E               	movwf	___fldiv@new_exp^0,c
  3257  001244  0E00               	movlw	0
  3258  001246  2026               	addwfc	(??___fldiv+1)^0,w,c
  3259  001248  6E2F               	movwf	(___fldiv@new_exp+1)^0,c
  3260  00124A  C01D  F029         	movff	___fldiv@b,___fldiv@rem
  3261  00124E  C01E  F02A         	movff	___fldiv@b+1,___fldiv@rem+1
  3262  001252  C01F  F02B         	movff	___fldiv@b+2,___fldiv@rem+2
  3263  001256  C020  F02C         	movff	___fldiv@b+3,___fldiv@rem+3
  3264  00125A  0E00               	movlw	0
  3265  00125C  6E1D               	movwf	___fldiv@b^0,c
  3266  00125E  0E00               	movlw	0
  3267  001260  6E1E               	movwf	(___fldiv@b+1)^0,c
  3268  001262  0E00               	movlw	0
  3269  001264  6E1F               	movwf	(___fldiv@b+2)^0,c
  3270  001266  0E00               	movlw	0
  3271  001268  6E20               	movwf	(___fldiv@b+3)^0,c
  3272  00126A  0E00               	movlw	0
  3273  00126C  6E30               	movwf	___fldiv@grs^0,c
  3274  00126E  0E00               	movlw	0
  3275  001270  6E31               	movwf	(___fldiv@grs+1)^0,c
  3276  001272  0E00               	movlw	0
  3277  001274  6E32               	movwf	(___fldiv@grs+2)^0,c
  3278  001276  0E00               	movlw	0
  3279  001278  6E33               	movwf	(___fldiv@grs+3)^0,c
  3280  00127A  0E00               	movlw	0
  3281  00127C  6E35               	movwf	___fldiv@aexp^0,c
  3282  00127E  EF79  F009         	goto	l1079
  3283  001282                     l3332:
  3284  001282  5035               	movf	___fldiv@aexp^0,w,c
  3285  001284  B4D8               	btfsc	status,2,c
  3286  001286  EF47  F009         	goto	u3131
  3287  00128A  EF49  F009         	goto	u3130
  3288  00128E                     u3131:
  3289  00128E  EF60  F009         	goto	l3340
  3290  001292                     u3130:
  3291  001292  90D8               	bcf	status,0,c
  3292  001294  3629               	rlcf	___fldiv@rem^0,f,c
  3293  001296  362A               	rlcf	(___fldiv@rem+1)^0,f,c
  3294  001298  362B               	rlcf	(___fldiv@rem+2)^0,f,c
  3295  00129A  362C               	rlcf	(___fldiv@rem+3)^0,f,c
  3296  00129C  90D8               	bcf	status,0,c
  3297  00129E  361D               	rlcf	___fldiv@b^0,f,c
  3298  0012A0  361E               	rlcf	(___fldiv@b+1)^0,f,c
  3299  0012A2  361F               	rlcf	(___fldiv@b+2)^0,f,c
  3300  0012A4  3620               	rlcf	(___fldiv@b+3)^0,f,c
  3301  0012A6  AE33               	btfss	(___fldiv@grs+3)^0,7,c
  3302  0012A8  EF58  F009         	goto	u3141
  3303  0012AC  EF5A  F009         	goto	u3140
  3304  0012B0                     u3141:
  3305  0012B0  EF5B  F009         	goto	l1082
  3306  0012B4                     u3140:
  3307  0012B4  801D               	bsf	___fldiv@b^0,0,c
  3308  0012B6                     l1082:
  3309  0012B6  90D8               	bcf	status,0,c
  3310  0012B8  3630               	rlcf	___fldiv@grs^0,f,c
  3311  0012BA  3631               	rlcf	(___fldiv@grs+1)^0,f,c
  3312  0012BC  3632               	rlcf	(___fldiv@grs+2)^0,f,c
  3313  0012BE  3633               	rlcf	(___fldiv@grs+3)^0,f,c
  3314  0012C0                     l3340:
  3315  0012C0  5021               	movf	___fldiv@a^0,w,c
  3316  0012C2  5C29               	subwf	___fldiv@rem^0,w,c
  3317  0012C4  5022               	movf	(___fldiv@a+1)^0,w,c
  3318  0012C6  582A               	subwfb	(___fldiv@rem+1)^0,w,c
  3319  0012C8  5023               	movf	(___fldiv@a+2)^0,w,c
  3320  0012CA  582B               	subwfb	(___fldiv@rem+2)^0,w,c
  3321  0012CC  5024               	movf	(___fldiv@a+3)^0,w,c
  3322  0012CE  582C               	subwfb	(___fldiv@rem+3)^0,w,c
  3323  0012D0  A0D8               	btfss	status,0,c
  3324  0012D2  EF6D  F009         	goto	u3151
  3325  0012D6  EF6F  F009         	goto	u3150
  3326  0012DA                     u3151:
  3327  0012DA  EF78  F009         	goto	l3346
  3328  0012DE                     u3150:
  3329  0012DE  8C33               	bsf	(___fldiv@grs+3)^0,6,c
  3330  0012E0  5021               	movf	___fldiv@a^0,w,c
  3331  0012E2  5E29               	subwf	___fldiv@rem^0,f,c
  3332  0012E4  5022               	movf	(___fldiv@a+1)^0,w,c
  3333  0012E6  5A2A               	subwfb	(___fldiv@rem+1)^0,f,c
  3334  0012E8  5023               	movf	(___fldiv@a+2)^0,w,c
  3335  0012EA  5A2B               	subwfb	(___fldiv@rem+2)^0,f,c
  3336  0012EC  5024               	movf	(___fldiv@a+3)^0,w,c
  3337  0012EE  5A2C               	subwfb	(___fldiv@rem+3)^0,f,c
  3338  0012F0                     l3346:
  3339  0012F0  2A35               	incf	___fldiv@aexp^0,f,c
  3340  0012F2                     l1079:
  3341  0012F2  0E19               	movlw	25
  3342  0012F4  6435               	cpfsgt	___fldiv@aexp^0,c
  3343  0012F6  EF7F  F009         	goto	u3161
  3344  0012FA  EF81  F009         	goto	u3160
  3345  0012FE                     u3161:
  3346  0012FE  EF41  F009         	goto	l3332
  3347  001302                     u3160:
  3348  001302  5029               	movf	___fldiv@rem^0,w,c
  3349  001304  102A               	iorwf	(___fldiv@rem+1)^0,w,c
  3350  001306  102B               	iorwf	(___fldiv@rem+2)^0,w,c
  3351  001308  102C               	iorwf	(___fldiv@rem+3)^0,w,c
  3352  00130A  B4D8               	btfsc	status,2,c
  3353  00130C  EF8A  F009         	goto	u3171
  3354  001310  EF8C  F009         	goto	u3170
  3355  001314                     u3171:
  3356  001314  EFA4  F009         	goto	l3358
  3357  001318                     u3170:
  3358  001318  8030               	bsf	___fldiv@grs^0,0,c
  3359  00131A  EFA4  F009         	goto	l3358
  3360  00131E                     l3352:
  3361  00131E  90D8               	bcf	status,0,c
  3362  001320  361D               	rlcf	___fldiv@b^0,f,c
  3363  001322  361E               	rlcf	(___fldiv@b+1)^0,f,c
  3364  001324  361F               	rlcf	(___fldiv@b+2)^0,f,c
  3365  001326  3620               	rlcf	(___fldiv@b+3)^0,f,c
  3366  001328  AE33               	btfss	(___fldiv@grs+3)^0,7,c
  3367  00132A  EF99  F009         	goto	u3181
  3368  00132E  EF9B  F009         	goto	u3180
  3369  001332                     u3181:
  3370  001332  EF9C  F009         	goto	l1088
  3371  001336                     u3180:
  3372  001336  801D               	bsf	___fldiv@b^0,0,c
  3373  001338                     l1088:
  3374  001338  90D8               	bcf	status,0,c
  3375  00133A  3630               	rlcf	___fldiv@grs^0,f,c
  3376  00133C  3631               	rlcf	(___fldiv@grs+1)^0,f,c
  3377  00133E  3632               	rlcf	(___fldiv@grs+2)^0,f,c
  3378  001340  3633               	rlcf	(___fldiv@grs+3)^0,f,c
  3379  001342  062E               	decf	___fldiv@new_exp^0,f,c
  3380  001344  A0D8               	btfss	status,0,c
  3381  001346  062F               	decf	(___fldiv@new_exp+1)^0,f,c
  3382  001348                     l3358:
  3383  001348  AE1F               	btfss	(___fldiv@b+2)^0,7,c
  3384  00134A  EFA9  F009         	goto	u3191
  3385  00134E  EFAB  F009         	goto	u3190
  3386  001352                     u3191:
  3387  001352  EF8F  F009         	goto	l3352
  3388  001356                     u3190:
  3389  001356  0E00               	movlw	0
  3390  001358  6E35               	movwf	___fldiv@aexp^0,c
  3391  00135A  AE33               	btfss	(___fldiv@grs+3)^0,7,c
  3392  00135C  EFB2  F009         	goto	u3201
  3393  001360  EFB4  F009         	goto	u3200
  3394  001364                     u3201:
  3395  001364  EFD8  F009         	goto	l1090
  3396  001368                     u3200:
  3397  001368  0EFF               	movlw	255
  3398  00136A  1430               	andwf	___fldiv@grs^0,w,c
  3399  00136C  6E25               	movwf	??___fldiv^0,c
  3400  00136E  0EFF               	movlw	255
  3401  001370  1431               	andwf	(___fldiv@grs+1)^0,w,c
  3402  001372  6E26               	movwf	(??___fldiv+1)^0,c
  3403  001374  0EFF               	movlw	255
  3404  001376  1432               	andwf	(___fldiv@grs+2)^0,w,c
  3405  001378  6E27               	movwf	(??___fldiv+2)^0,c
  3406  00137A  0E7F               	movlw	127
  3407  00137C  1433               	andwf	(___fldiv@grs+3)^0,w,c
  3408  00137E  6E28               	movwf	(??___fldiv+3)^0,c
  3409  001380  5025               	movf	??___fldiv^0,w,c
  3410  001382  1026               	iorwf	(??___fldiv+1)^0,w,c
  3411  001384  1027               	iorwf	(??___fldiv+2)^0,w,c
  3412  001386  1028               	iorwf	(??___fldiv+3)^0,w,c
  3413  001388  B4D8               	btfsc	status,2,c
  3414  00138A  EFC9  F009         	goto	u3211
  3415  00138E  EFCB  F009         	goto	u3210
  3416  001392                     u3211:
  3417  001392  EFCF  F009         	goto	l1091
  3418  001396                     u3210:
  3419  001396                     l3366:
  3420  001396  0E01               	movlw	1
  3421  001398  6E35               	movwf	___fldiv@aexp^0,c
  3422  00139A  EFD8  F009         	goto	l1090
  3423  00139E                     l1091:
  3424  00139E  A01D               	btfss	___fldiv@b^0,0,c
  3425  0013A0  EFD4  F009         	goto	u3221
  3426  0013A4  EFD6  F009         	goto	u3220
  3427  0013A8                     u3221:
  3428  0013A8  EFD8  F009         	goto	l1090
  3429  0013AC                     u3220:
  3430  0013AC  EFCB  F009         	goto	l3366
  3431  0013B0                     l1090:
  3432  0013B0  5035               	movf	___fldiv@aexp^0,w,c
  3433  0013B2  B4D8               	btfsc	status,2,c
  3434  0013B4  EFDE  F009         	goto	u3231
  3435  0013B8  EFE0  F009         	goto	u3230
  3436  0013BC                     u3231:
  3437  0013BC  EF04  F00A         	goto	l3378
  3438  0013C0                     u3230:
  3439  0013C0  0E01               	movlw	1
  3440  0013C2  261D               	addwf	___fldiv@b^0,f,c
  3441  0013C4  0E00               	movlw	0
  3442  0013C6  221E               	addwfc	(___fldiv@b+1)^0,f,c
  3443  0013C8  221F               	addwfc	(___fldiv@b+2)^0,f,c
  3444  0013CA  2220               	addwfc	(___fldiv@b+3)^0,f,c
  3445  0013CC  A020               	btfss	(___fldiv@b+3)^0,0,c
  3446  0013CE  EFEB  F009         	goto	u3241
  3447  0013D2  EFED  F009         	goto	u3240
  3448  0013D6                     u3241:
  3449  0013D6  EF04  F00A         	goto	l3378
  3450  0013DA                     u3240:
  3451  0013DA  C01D  F025         	movff	___fldiv@b,??___fldiv
  3452  0013DE  C01E  F026         	movff	___fldiv@b+1,??___fldiv+1
  3453  0013E2  C01F  F027         	movff	___fldiv@b+2,??___fldiv+2
  3454  0013E6  C020  F028         	movff	___fldiv@b+3,??___fldiv+3
  3455  0013EA  3428               	rlcf	(??___fldiv+3)^0,w,c
  3456  0013EC  3228               	rrcf	(??___fldiv+3)^0,f,c
  3457  0013EE  3227               	rrcf	(??___fldiv+2)^0,f,c
  3458  0013F0  3226               	rrcf	(??___fldiv+1)^0,f,c
  3459  0013F2  3225               	rrcf	??___fldiv^0,f,c
  3460  0013F4  C025  F01D         	movff	??___fldiv,___fldiv@b
  3461  0013F8  C026  F01E         	movff	??___fldiv+1,___fldiv@b+1
  3462  0013FC  C027  F01F         	movff	??___fldiv+2,___fldiv@b+2
  3463  001400  C028  F020         	movff	??___fldiv+3,___fldiv@b+3
  3464  001404  4A2E               	infsnz	___fldiv@new_exp^0,f,c
  3465  001406  2A2F               	incf	(___fldiv@new_exp+1)^0,f,c
  3466  001408                     l3378:
  3467  001408  BE2F               	btfsc	(___fldiv@new_exp+1)^0,7,c
  3468  00140A  EF0F  F00A         	goto	u3251
  3469  00140E  502F               	movf	(___fldiv@new_exp+1)^0,w,c
  3470  001410  E108               	bnz	u3250
  3471  001412  282E               	incf	___fldiv@new_exp^0,w,c
  3472  001414  A0D8               	btfss	status,0,c
  3473  001416  EF0F  F00A         	goto	u3251
  3474  00141A  EF11  F00A         	goto	u3250
  3475  00141E                     u3251:
  3476  00141E  EF1C  F00A         	goto	l3382
  3477  001422                     u3250:
  3478  001422  0E00               	movlw	0
  3479  001424  6E2F               	movwf	(___fldiv@new_exp+1)^0,c
  3480  001426  682E               	setf	___fldiv@new_exp^0,c
  3481  001428  0E00               	movlw	0
  3482  00142A  6E1D               	movwf	___fldiv@b^0,c
  3483  00142C  0E00               	movlw	0
  3484  00142E  6E1E               	movwf	(___fldiv@b+1)^0,c
  3485  001430  0E00               	movlw	0
  3486  001432  6E1F               	movwf	(___fldiv@b+2)^0,c
  3487  001434  0E00               	movlw	0
  3488  001436  6E20               	movwf	(___fldiv@b+3)^0,c
  3489  001438                     l3382:
  3490  001438  BE2F               	btfsc	(___fldiv@new_exp+1)^0,7,c
  3491  00143A  EF29  F00A         	goto	u3260
  3492  00143E  502F               	movf	(___fldiv@new_exp+1)^0,w,c
  3493  001440  E106               	bnz	u3261
  3494  001442  042E               	decf	___fldiv@new_exp^0,w,c
  3495  001444  B0D8               	btfsc	status,0,c
  3496  001446  EF27  F00A         	goto	u3261
  3497  00144A  EF29  F00A         	goto	u3260
  3498  00144E                     u3261:
  3499  00144E  EF37  F00A         	goto	l3386
  3500  001452                     u3260:
  3501  001452  0E00               	movlw	0
  3502  001454  6E2F               	movwf	(___fldiv@new_exp+1)^0,c
  3503  001456  0E00               	movlw	0
  3504  001458  6E2E               	movwf	___fldiv@new_exp^0,c
  3505  00145A  0E00               	movlw	0
  3506  00145C  6E1D               	movwf	___fldiv@b^0,c
  3507  00145E  0E00               	movlw	0
  3508  001460  6E1E               	movwf	(___fldiv@b+1)^0,c
  3509  001462  0E00               	movlw	0
  3510  001464  6E1F               	movwf	(___fldiv@b+2)^0,c
  3511  001466  0E00               	movlw	0
  3512  001468  6E20               	movwf	(___fldiv@b+3)^0,c
  3513  00146A  0E00               	movlw	0
  3514  00146C  6E2D               	movwf	___fldiv@sign^0,c
  3515  00146E                     l3386:
  3516  00146E  C02E  F034         	movff	___fldiv@new_exp,___fldiv@bexp
  3517  001472  A034               	btfss	___fldiv@bexp^0,0,c
  3518  001474  EF3E  F00A         	goto	u3271
  3519  001478  EF40  F00A         	goto	u3270
  3520  00147C                     u3271:
  3521  00147C  EF43  F00A         	goto	l3392
  3522  001480                     u3270:
  3523  001480  8E1F               	bsf	(___fldiv@b+2)^0,7,c
  3524  001482  EF44  F00A         	goto	l3394
  3525  001486                     l3392:
  3526  001486  9E1F               	bcf	(___fldiv@b+2)^0,7,c
  3527  001488                     l3394:
  3528  001488  90D8               	bcf	status,0,c
  3529  00148A  3034               	rrcf	___fldiv@bexp^0,w,c
  3530  00148C  6E20               	movwf	(___fldiv@b+3)^0,c
  3531  00148E  EFFA  F008         	goto	l3308
  3532  001492                     l1077:
  3533  001492  0012               	return		;funcret
  3534  001494                     __end_of___fldiv:
  3535                           	callstack 0
  3536                           
  3537 ;; *************** function _ADC_GetConversion *****************
  3538 ;; Defined at:
  3539 ;;		line 110 in file "mcc_generated_files/adc.c"
  3540 ;; Parameters:    Size  Location     Type
  3541 ;;  channel         1    wreg     enum E4598
  3542 ;; Auto vars:     Size  Location     Type
  3543 ;;  channel         1    8[COMRAM] enum E4598
  3544 ;; Return value:  Size  Location     Type
  3545 ;;                  2    4[COMRAM] unsigned short 
  3546 ;; Registers used:
  3547 ;;		wreg, status,2, status,0
  3548 ;; Tracked objects:
  3549 ;;		On entry : 0/0
  3550 ;;		On exit  : 0/0
  3551 ;;		Unchanged: 0/0
  3552 ;; Data sizes:     COMRAM   BANK0   BANK1   BANK2   BANK3   BANK4   BANK5   BANK6   BANK7
  3553 ;;      Params:         2       0       0       0       0       0       0       0       0
  3554 ;;      Locals:         1       0       0       0       0       0       0       0       0
  3555 ;;      Temps:          2       0       0       0       0       0       0       0       0
  3556 ;;      Totals:         5       0       0       0       0       0       0       0       0
  3557 ;;Total ram usage:        5 bytes
  3558 ;; Hardware stack levels used: 1
  3559 ;; Hardware stack levels required when called: 4
  3560 ;; This function calls:
  3561 ;;		Nothing
  3562 ;; This function is called by:
  3563 ;;		_get_corriente_AC
  3564 ;; This function uses a non-reentrant model
  3565 ;;
  3566                           
  3567                           	psect	text9
  3568  001F8A                     __ptext9:
  3569                           	callstack 0
  3570  001F8A                     _ADC_GetConversion:
  3571                           	callstack 24
  3572                           
  3573                           ;incstack = 0
  3574                           ;ADC_GetConversion@channel stored from wreg
  3575  001F8A  6E09               	movwf	ADC_GetConversion@channel^0,c
  3576  001F8C                     
  3577                           ;mcc_generated_files/adc.c: 110: adc_result_t ADC_GetConversion(adc_channel_t channel);m
      +                          cc_generated_files/adc.c: 111: {;mcc_generated_files/adc.c: 113:     ADCON0bits.CHS = ch
      +                          annel;
  3578  001F8C  C009  F007         	movff	ADC_GetConversion@channel,??_ADC_GetConversion
  3579  001F90  4607               	rlncf	??_ADC_GetConversion^0,f,c
  3580  001F92  4607               	rlncf	??_ADC_GetConversion^0,f,c
  3581  001F94  50C2               	movf	194,w,c	;volatile
  3582  001F96  1807               	xorwf	??_ADC_GetConversion^0,w,c
  3583  001F98  0B83               	andlw	-125
  3584  001F9A  1807               	xorwf	??_ADC_GetConversion^0,w,c
  3585  001F9C  6EC2               	movwf	194,c	;volatile
  3586  001F9E                     
  3587                           ;mcc_generated_files/adc.c: 116:     ADCON0bits.ADON = 1;
  3588  001F9E  80C2               	bsf	194,0,c	;volatile
  3589  001FA0                     
  3590                           ;mcc_generated_files/adc.c: 119:     ADCON0bits.GO_nDONE = 1;
  3591  001FA0  82C2               	bsf	194,1,c	;volatile
  3592  001FA2                     l206:
  3593                           
  3594                           ;mcc_generated_files/adc.c: 122:     while (ADCON0bits.GO_nDONE)
  3595  001FA2  B2C2               	btfsc	194,1,c	;volatile
  3596  001FA4  EFD6  F00F         	goto	u3041
  3597  001FA8  EFD8  F00F         	goto	u3040
  3598  001FAC                     u3041:
  3599  001FAC  EFD1  F00F         	goto	l206
  3600  001FB0                     u3040:
  3601  001FB0                     
  3602                           ;mcc_generated_files/adc.c: 127:     return ((adc_result_t)((ADRESH << 8) + ADRESL));
  3603  001FB0  50C4               	movf	196,w,c	;volatile
  3604  001FB2  6E08               	movwf	(??_ADC_GetConversion+1)^0,c
  3605  001FB4  6A07               	clrf	??_ADC_GetConversion^0,c
  3606  001FB6  50C3               	movf	195,w,c	;volatile
  3607  001FB8  2407               	addwf	??_ADC_GetConversion^0,w,c
  3608  001FBA  6E05               	movwf	?_ADC_GetConversion^0,c
  3609  001FBC  0E00               	movlw	0
  3610  001FBE  2008               	addwfc	(??_ADC_GetConversion+1)^0,w,c
  3611  001FC0  6E06               	movwf	(?_ADC_GetConversion+1)^0,c
  3612  001FC2  0012               	return		;funcret
  3613  001FC4                     __end_of_ADC_GetConversion:
  3614                           	callstack 0
  3615                           
  3616 ;; *************** function _spi_s_init *****************
  3617 ;; Defined at:
  3618 ;;		line 23 in file "./Librerias/nRF24L01_2.h"
  3619 ;; Parameters:    Size  Location     Type
  3620 ;;		None
  3621 ;; Auto vars:     Size  Location     Type
  3622 ;;		None
  3623 ;; Return value:  Size  Location     Type
  3624 ;;                  1    wreg      void 
  3625 ;; Registers used:
  3626 ;;		None
  3627 ;; Tracked objects:
  3628 ;;		On entry : 0/0
  3629 ;;		On exit  : 0/0
  3630 ;;		Unchanged: 0/0
  3631 ;; Data sizes:     COMRAM   BANK0   BANK1   BANK2   BANK3   BANK4   BANK5   BANK6   BANK7
  3632 ;;      Params:         0       0       0       0       0       0       0       0       0
  3633 ;;      Locals:         0       0       0       0       0       0       0       0       0
  3634 ;;      Temps:          0       0       0       0       0       0       0       0       0
  3635 ;;      Totals:         0       0       0       0       0       0       0       0       0
  3636 ;;Total ram usage:        0 bytes
  3637 ;; Hardware stack levels used: 1
  3638 ;; Hardware stack levels required when called: 4
  3639 ;; This function calls:
  3640 ;;		Nothing
  3641 ;; This function is called by:
  3642 ;;		_main
  3643 ;; This function uses a non-reentrant model
  3644 ;;
  3645                           
  3646                           	psect	text10
  3647  002140                     __ptext10:
  3648                           	callstack 0
  3649  002140                     _spi_s_init:
  3650                           	callstack 26
  3651  002140                     
  3652                           ;./Librerias/nRF24L01_2.h: 26:     TRISCbits.TRISC1 = 0;
  3653  002140  9294               	bcf	148,1,c	;volatile
  3654                           
  3655                           ;./Librerias/nRF24L01_2.h: 27:     TRISBbits.TRISB2 = 0;
  3656  002142  9493               	bcf	147,2,c	;volatile
  3657                           
  3658                           ;./Librerias/nRF24L01_2.h: 28:     TRISCbits.TRISC2 = 0;
  3659  002144  9494               	bcf	148,2,c	;volatile
  3660                           
  3661                           ;./Librerias/nRF24L01_2.h: 29:     TRISBbits.TRISB3 = 1;
  3662  002146  8693               	bsf	147,3,c	;volatile
  3663                           
  3664                           ;./Librerias/nRF24L01_2.h: 30:     TRISBbits.TRISB1 = 0;
  3665  002148  9293               	bcf	147,1,c	;volatile
  3666                           
  3667                           ;./Librerias/nRF24L01_2.h: 31:     TRISCbits.TRISC0 = 1;
  3668  00214A  8094               	bsf	148,0,c	;volatile
  3669                           
  3670                           ;./Librerias/nRF24L01_2.h: 33:     LATBbits.LATB2 = 0;
  3671  00214C  948A               	bcf	138,2,c	;volatile
  3672                           
  3673                           ;./Librerias/nRF24L01_2.h: 34:     LATCbits.LATC2 = 0;
  3674  00214E  948B               	bcf	139,2,c	;volatile
  3675                           
  3676                           ;./Librerias/nRF24L01_2.h: 35:     LATCbits.LATC1 = 0;
  3677  002150  928B               	bcf	139,1,c	;volatile
  3678                           
  3679                           ;./Librerias/nRF24L01_2.h: 36:     LATBbits.LATB1 = 0;
  3680  002152  928A               	bcf	138,1,c	;volatile
  3681  002154  0012               	return		;funcret
  3682  002156                     __end_of_spi_s_init:
  3683                           	callstack 0
  3684                           
  3685 ;; *************** function _nrf2401_recibe *****************
  3686 ;; Defined at:
  3687 ;;		line 172 in file "./Librerias/nRF24L01_2.h"
  3688 ;; Parameters:    Size  Location     Type
  3689 ;;		None
  3690 ;; Auto vars:     Size  Location     Type
  3691 ;;  valor_          1    6[COMRAM] unsigned char 
  3692 ;; Return value:  Size  Location     Type
  3693 ;;                  1    wreg      unsigned char 
  3694 ;; Registers used:
  3695 ;;		wreg, status,2, status,0, cstack
  3696 ;; Tracked objects:
  3697 ;;		On entry : 0/0
  3698 ;;		On exit  : 0/0
  3699 ;;		Unchanged: 0/0
  3700 ;; Data sizes:     COMRAM   BANK0   BANK1   BANK2   BANK3   BANK4   BANK5   BANK6   BANK7
  3701 ;;      Params:         0       0       0       0       0       0       0       0       0
  3702 ;;      Locals:         1       0       0       0       0       0       0       0       0
  3703 ;;      Temps:          0       0       0       0       0       0       0       0       0
  3704 ;;      Totals:         1       0       0       0       0       0       0       0       0
  3705 ;;Total ram usage:        1 bytes
  3706 ;; Hardware stack levels used: 1
  3707 ;; Hardware stack levels required when called: 5
  3708 ;; This function calls:
  3709 ;;		_spi_s_read
  3710 ;;		_spi_s_write
  3711 ;; This function is called by:
  3712 ;;		_main
  3713 ;;		_nrf2401_recibe_Text
  3714 ;; This function uses a non-reentrant model
  3715 ;;
  3716                           
  3717                           	psect	text11
  3718  00210E                     __ptext11:
  3719                           	callstack 0
  3720  00210E                     _nrf2401_recibe:
  3721                           	callstack 25
  3722  00210E                     
  3723                           ;./Librerias/nRF24L01_2.h: 174:     char valor_;;./Librerias/nRF24L01_2.h: 175:     LATC
      +                          bits.LATC2 = 0;
  3724  00210E  948B               	bcf	139,2,c	;volatile
  3725  002110                     
  3726                           ;./Librerias/nRF24L01_2.h: 176:     spi_s_write(0x61);
  3727  002110  0E61               	movlw	97
  3728  002112  ECD2  F00E         	call	_spi_s_write
  3729                           
  3730                           ;./Librerias/nRF24L01_2.h: 177:     valor_ = spi_s_read();
  3731  002116  EC60  F00F         	call	_spi_s_read	;wreg free
  3732  00211A  6E07               	movwf	nrf2401_recibe@valor_^0,c
  3733  00211C                     
  3734                           ;./Librerias/nRF24L01_2.h: 178:     LATCbits.LATC2 = 1;
  3735  00211C  848B               	bsf	139,2,c	;volatile
  3736  00211E                     
  3737                           ;./Librerias/nRF24L01_2.h: 179:     _delay((unsigned long)((5)*(48000000/4000000.0)));
  3738  00211E  0E14               	movlw	20
  3739  002120                     u3857:
  3740  002120  2EE8               	decfsz	wreg,f,c
  3741  002122  D7FE               	bra	u3857
  3742  002124                     
  3743                           ;./Librerias/nRF24L01_2.h: 180:     return (valor_);
  3744  002124  5007               	movf	nrf2401_recibe@valor_^0,w,c
  3745  002126  0012               	return		;funcret
  3746  002128                     __end_of_nrf2401_recibe:
  3747                           	callstack 0
  3748                           
  3749 ;; *************** function _nrf2401_haydatos *****************
  3750 ;; Defined at:
  3751 ;;		line 240 in file "./Librerias/nRF24L01_2.h"
  3752 ;; Parameters:    Size  Location     Type
  3753 ;;		None
  3754 ;; Auto vars:     Size  Location     Type
  3755 ;;		None
  3756 ;; Return value:  Size  Location     Type
  3757 ;;                  1    wreg      unsigned char 
  3758 ;; Registers used:
  3759 ;;		wreg, status,2, status,0, cstack
  3760 ;; Tracked objects:
  3761 ;;		On entry : 0/0
  3762 ;;		On exit  : 0/0
  3763 ;;		Unchanged: 0/0
  3764 ;; Data sizes:     COMRAM   BANK0   BANK1   BANK2   BANK3   BANK4   BANK5   BANK6   BANK7
  3765 ;;      Params:         0       0       0       0       0       0       0       0       0
  3766 ;;      Locals:         0       0       0       0       0       0       0       0       0
  3767 ;;      Temps:          0       0       0       0       0       0       0       0       0
  3768 ;;      Totals:         0       0       0       0       0       0       0       0       0
  3769 ;;Total ram usage:        0 bytes
  3770 ;; Hardware stack levels used: 1
  3771 ;; Hardware stack levels required when called: 7
  3772 ;; This function calls:
  3773 ;;		_get_Status
  3774 ;; This function is called by:
  3775 ;;		_main
  3776 ;; This function uses a non-reentrant model
  3777 ;;
  3778                           
  3779                           	psect	text12
  3780  00209A                     __ptext12:
  3781                           	callstack 0
  3782  00209A                     _nrf2401_haydatos:
  3783                           	callstack 23
  3784  00209A                     
  3785                           ;./Librerias/nRF24L01_2.h: 242:     if(get_Status() == 0x40) return(1);
  3786  00209A  ECE1  F010         	call	_get_Status	;wreg free
  3787  00209E  0A40               	xorlw	64
  3788  0020A0  A4D8               	btfss	status,2,c
  3789  0020A2  EF55  F010         	goto	u1131
  3790  0020A6  EF57  F010         	goto	u1130
  3791  0020AA                     u1131:
  3792  0020AA  EF5A  F010         	goto	l1998
  3793  0020AE                     u1130:
  3794  0020AE  0E01               	movlw	1
  3795  0020B0  EF5B  F010         	goto	l311
  3796  0020B4                     l1998:
  3797  0020B4  0E00               	movlw	0
  3798  0020B6                     l311:
  3799  0020B6  0012               	return		;funcret
  3800  0020B8                     __end_of_nrf2401_haydatos:
  3801                           	callstack 0
  3802                           
  3803 ;; *************** function _get_Status *****************
  3804 ;; Defined at:
  3805 ;;		line 218 in file "./Librerias/nRF24L01_2.h"
  3806 ;; Parameters:    Size  Location     Type
  3807 ;;		None
  3808 ;; Auto vars:     Size  Location     Type
  3809 ;;		None
  3810 ;; Return value:  Size  Location     Type
  3811 ;;                  1    wreg      unsigned char 
  3812 ;; Registers used:
  3813 ;;		wreg, status,2, status,0, cstack
  3814 ;; Tracked objects:
  3815 ;;		On entry : 0/0
  3816 ;;		On exit  : 0/0
  3817 ;;		Unchanged: 0/0
  3818 ;; Data sizes:     COMRAM   BANK0   BANK1   BANK2   BANK3   BANK4   BANK5   BANK6   BANK7
  3819 ;;      Params:         0       0       0       0       0       0       0       0       0
  3820 ;;      Locals:         0       0       0       0       0       0       0       0       0
  3821 ;;      Temps:          0       0       0       0       0       0       0       0       0
  3822 ;;      Totals:         0       0       0       0       0       0       0       0       0
  3823 ;;Total ram usage:        0 bytes
  3824 ;; Hardware stack levels used: 1
  3825 ;; Hardware stack levels required when called: 6
  3826 ;; This function calls:
  3827 ;;		_nrf2401_read
  3828 ;; This function is called by:
  3829 ;;		_nrf2401_haydatos
  3830 ;;		_nrf2401_recibe_Text
  3831 ;; This function uses a non-reentrant model
  3832 ;;
  3833                           
  3834                           	psect	text13
  3835  0021C2                     __ptext13:
  3836                           	callstack 0
  3837  0021C2                     _get_Status:
  3838                           	callstack 23
  3839  0021C2                     
  3840                           ;./Librerias/nRF24L01_2.h: 220:     return nrf2401_read (0x07);
  3841  0021C2  0E07               	movlw	7
  3842  0021C4  EC6B  F010         	call	_nrf2401_read
  3843  0021C8  0012               	return		;funcret
  3844  0021CA                     __end_of_get_Status:
  3845                           	callstack 0
  3846                           
  3847 ;; *************** function _nrf2401_read *****************
  3848 ;; Defined at:
  3849 ;;		line 99 in file "./Librerias/nRF24L01_2.h"
  3850 ;; Parameters:    Size  Location     Type
  3851 ;;  reg             1    wreg     unsigned char 
  3852 ;; Auto vars:     Size  Location     Type
  3853 ;;  reg             1    6[COMRAM] unsigned char 
  3854 ;;  dato_           1    7[COMRAM] unsigned char 
  3855 ;; Return value:  Size  Location     Type
  3856 ;;                  1    wreg      unsigned char 
  3857 ;; Registers used:
  3858 ;;		wreg, status,2, status,0, cstack
  3859 ;; Tracked objects:
  3860 ;;		On entry : 0/0
  3861 ;;		On exit  : 0/0
  3862 ;;		Unchanged: 0/0
  3863 ;; Data sizes:     COMRAM   BANK0   BANK1   BANK2   BANK3   BANK4   BANK5   BANK6   BANK7
  3864 ;;      Params:         0       0       0       0       0       0       0       0       0
  3865 ;;      Locals:         2       0       0       0       0       0       0       0       0
  3866 ;;      Temps:          0       0       0       0       0       0       0       0       0
  3867 ;;      Totals:         2       0       0       0       0       0       0       0       0
  3868 ;;Total ram usage:        2 bytes
  3869 ;; Hardware stack levels used: 1
  3870 ;; Hardware stack levels required when called: 5
  3871 ;; This function calls:
  3872 ;;		_spi_s_read
  3873 ;;		_spi_s_write
  3874 ;; This function is called by:
  3875 ;;		_get_Status
  3876 ;;		_get_fifo_status
  3877 ;; This function uses a non-reentrant model
  3878 ;;
  3879                           
  3880                           	psect	text14
  3881  0020D6                     __ptext14:
  3882                           	callstack 0
  3883  0020D6                     _nrf2401_read:
  3884                           	callstack 23
  3885                           
  3886                           ;incstack = 0
  3887                           ;nrf2401_read@reg stored from wreg
  3888  0020D6  6E07               	movwf	nrf2401_read@reg^0,c
  3889  0020D8                     
  3890                           ;./Librerias/nRF24L01_2.h: 102:     LATCbits.LATC2 = 0;
  3891  0020D8  948B               	bcf	139,2,c	;volatile
  3892  0020DA                     
  3893                           ;./Librerias/nRF24L01_2.h: 103:     spi_s_write((reg | 0x00));
  3894  0020DA  5007               	movf	nrf2401_read@reg^0,w,c
  3895  0020DC  ECD2  F00E         	call	_spi_s_write
  3896  0020E0                     
  3897                           ;./Librerias/nRF24L01_2.h: 104:     dato_ = spi_s_read();
  3898  0020E0  EC60  F00F         	call	_spi_s_read	;wreg free
  3899  0020E4  6E08               	movwf	nrf2401_read@dato_^0,c
  3900  0020E6                     
  3901                           ;./Librerias/nRF24L01_2.h: 105:     LATCbits.LATC2 = 1;
  3902  0020E6  848B               	bsf	139,2,c	;volatile
  3903  0020E8                     
  3904                           ;./Librerias/nRF24L01_2.h: 106:     _delay((unsigned long)((5)*(48000000/4000000.0)));
  3905  0020E8  0E14               	movlw	20
  3906  0020EA                     u3867:
  3907  0020EA  2EE8               	decfsz	wreg,f,c
  3908  0020EC  D7FE               	bra	u3867
  3909                           
  3910                           ;./Librerias/nRF24L01_2.h: 107:     return dato_;
  3911  0020EE  5008               	movf	nrf2401_read@dato_^0,w,c
  3912  0020F0  0012               	return		;funcret
  3913  0020F2                     __end_of_nrf2401_read:
  3914                           	callstack 0
  3915                           
  3916 ;; *************** function _spi_s_read *****************
  3917 ;; Defined at:
  3918 ;;		line 40 in file "./Librerias/nRF24L01_2.h"
  3919 ;; Parameters:    Size  Location     Type
  3920 ;;		None
  3921 ;; Auto vars:     Size  Location     Type
  3922 ;;  cont_s          1    5[COMRAM] unsigned char 
  3923 ;;  dato_           1    4[COMRAM] unsigned char 
  3924 ;; Return value:  Size  Location     Type
  3925 ;;                  1    wreg      unsigned char 
  3926 ;; Registers used:
  3927 ;;		wreg, status,2, status,0
  3928 ;; Tracked objects:
  3929 ;;		On entry : 0/0
  3930 ;;		On exit  : 0/0
  3931 ;;		Unchanged: 0/0
  3932 ;; Data sizes:     COMRAM   BANK0   BANK1   BANK2   BANK3   BANK4   BANK5   BANK6   BANK7
  3933 ;;      Params:         0       0       0       0       0       0       0       0       0
  3934 ;;      Locals:         2       0       0       0       0       0       0       0       0
  3935 ;;      Temps:          0       0       0       0       0       0       0       0       0
  3936 ;;      Totals:         2       0       0       0       0       0       0       0       0
  3937 ;;Total ram usage:        2 bytes
  3938 ;; Hardware stack levels used: 1
  3939 ;; Hardware stack levels required when called: 4
  3940 ;; This function calls:
  3941 ;;		Nothing
  3942 ;; This function is called by:
  3943 ;;		_nrf2401_read
  3944 ;;		_nrf2401_recibe
  3945 ;; This function uses a non-reentrant model
  3946 ;;
  3947                           
  3948                           	psect	text15
  3949  001EC0                     __ptext15:
  3950                           	callstack 0
  3951  001EC0                     _spi_s_read:
  3952                           	callstack 25
  3953  001EC0                     
  3954                           ;./Librerias/nRF24L01_2.h: 42:     unsigned char cont_s = 0;
  3955  001EC0  0E00               	movlw	0
  3956  001EC2  6E06               	movwf	spi_s_read@cont_s^0,c
  3957                           
  3958                           ;./Librerias/nRF24L01_2.h: 43:     unsigned char dato_ = 0;
  3959  001EC4  0E00               	movlw	0
  3960  001EC6  6E05               	movwf	spi_s_read@dato_^0,c
  3961                           
  3962                           ;./Librerias/nRF24L01_2.h: 45:     for(cont_s = 0; cont_s < 8; cont_s++)
  3963  001EC8  0E00               	movlw	0
  3964  001ECA  6E06               	movwf	spi_s_read@cont_s^0,c
  3965  001ECC                     l1174:
  3966                           
  3967                           ;./Librerias/nRF24L01_2.h: 46:     {;./Librerias/nRF24L01_2.h: 47:         dato_ <<= 1;
  3968  001ECC  90D8               	bcf	status,0,c
  3969  001ECE  3605               	rlcf	spi_s_read@dato_^0,f,c
  3970  001ED0                     
  3971                           ;./Librerias/nRF24L01_2.h: 48:         LATBbits.LATB2 = 1;
  3972  001ED0  848A               	bsf	138,2,c	;volatile
  3973  001ED2                     
  3974                           ;./Librerias/nRF24L01_2.h: 49:         _delay((unsigned long)((1)*(48000000/4000000.0)))
      +                          ;
  3975  001ED2  0E04               	movlw	4
  3976  001ED4                     u3877:
  3977  001ED4  2EE8               	decfsz	wreg,f,c
  3978  001ED6  D7FE               	bra	u3877
  3979  001ED8                     
  3980                           ;./Librerias/nRF24L01_2.h: 51:         if(PORTBbits.RB3 != 0)
  3981  001ED8  A681               	btfss	129,3,c	;volatile
  3982  001EDA  EF71  F00F         	goto	u11
  3983  001EDE  EF73  F00F         	goto	u10
  3984  001EE2                     u11:
  3985  001EE2  EF74  F00F         	goto	l1184
  3986  001EE6                     u10:
  3987  001EE6                     
  3988                           ;./Librerias/nRF24L01_2.h: 52:         {;./Librerias/nRF24L01_2.h: 53:             dato_
      +                           |= 1;
  3989  001EE6  8005               	bsf	spi_s_read@dato_^0,0,c
  3990  001EE8                     l1184:
  3991                           
  3992                           ;./Librerias/nRF24L01_2.h: 55:         LATBbits.LATB2 = 0;
  3993  001EE8  948A               	bcf	138,2,c	;volatile
  3994  001EEA                     
  3995                           ;./Librerias/nRF24L01_2.h: 56:         _delay((unsigned long)((1)*(48000000/4000000.0)))
      +                          ;
  3996  001EEA  0E04               	movlw	4
  3997  001EEC                     u3887:
  3998  001EEC  2EE8               	decfsz	wreg,f,c
  3999  001EEE  D7FE               	bra	u3887
  4000  001EF0                     
  4001                           ;./Librerias/nRF24L01_2.h: 57:     }
  4002  001EF0  2A06               	incf	spi_s_read@cont_s^0,f,c
  4003  001EF2  0E07               	movlw	7
  4004  001EF4  6406               	cpfsgt	spi_s_read@cont_s^0,c
  4005  001EF6  EF7F  F00F         	goto	u21
  4006  001EFA  EF81  F00F         	goto	u20
  4007  001EFE                     u21:
  4008  001EFE  EF66  F00F         	goto	l1174
  4009  001F02                     u20:
  4010  001F02                     
  4011                           ;./Librerias/nRF24L01_2.h: 58:     return dato_;
  4012  001F02  5005               	movf	spi_s_read@dato_^0,w,c
  4013  001F04  0012               	return		;funcret
  4014  001F06                     __end_of_spi_s_read:
  4015                           	callstack 0
  4016                           
  4017 ;; *************** function _nrF2401_init_RX *****************
  4018 ;; Defined at:
  4019 ;;		line 184 in file "./Librerias/nRF24L01_2.h"
  4020 ;; Parameters:    Size  Location     Type
  4021 ;;  canal           1    wreg     unsigned char 
  4022 ;; Auto vars:     Size  Location     Type
  4023 ;;  canal           1   12[COMRAM] unsigned char 
  4024 ;; Return value:  Size  Location     Type
  4025 ;;                  1    wreg      void 
  4026 ;; Registers used:
  4027 ;;		wreg, status,2, status,0, tblptrl, tblptrh, tblptru, cstack
  4028 ;; Tracked objects:
  4029 ;;		On entry : 0/0
  4030 ;;		On exit  : 0/0
  4031 ;;		Unchanged: 0/0
  4032 ;; Data sizes:     COMRAM   BANK0   BANK1   BANK2   BANK3   BANK4   BANK5   BANK6   BANK7
  4033 ;;      Params:         0       0       0       0       0       0       0       0       0
  4034 ;;      Locals:         1       0       0       0       0       0       0       0       0
  4035 ;;      Temps:          0       0       0       0       0       0       0       0       0
  4036 ;;      Totals:         1       0       0       0       0       0       0       0       0
  4037 ;;Total ram usage:        1 bytes
  4038 ;; Hardware stack levels used: 1
  4039 ;; Hardware stack levels required when called: 7
  4040 ;; This function calls:
  4041 ;;		_flush_TX_RX
  4042 ;;		_nrf2401_direccion_TX_RX
  4043 ;;		_nrf2401_write
  4044 ;; This function is called by:
  4045 ;;		_main
  4046 ;; This function uses a non-reentrant model
  4047 ;;
  4048                           
  4049                           	psect	text16
  4050  001D28                     __ptext16:
  4051                           	callstack 0
  4052  001D28                     _nrF2401_init_RX:
  4053                           	callstack 23
  4054                           
  4055                           ;incstack = 0
  4056                           ;nrF2401_init_RX@canal stored from wreg
  4057  001D28  6E0D               	movwf	nrF2401_init_RX@canal^0,c
  4058  001D2A                     
  4059                           ;./Librerias/nRF24L01_2.h: 184: void nrF2401_init_RX(unsigned char canal);./Librerias/nR
      +                          F24L01_2.h: 185: {;./Librerias/nRF24L01_2.h: 186:     LATBbits.LATB1 = 0;
  4060  001D2A  928A               	bcf	138,1,c	;volatile
  4061  001D2C                     
  4062                           ;./Librerias/nRF24L01_2.h: 187:     nrf2401_write(0x00, 0x04 + 0x08);
  4063  001D2C  0E0C               	movlw	12
  4064  001D2E  6E07               	movwf	nrf2401_write@valor^0,c
  4065  001D30  0E00               	movlw	0
  4066  001D32  EC79  F010         	call	_nrf2401_write
  4067                           
  4068                           ;./Librerias/nRF24L01_2.h: 188:     nrf2401_write(0x04, 0x00);
  4069  001D36  0E00               	movlw	0
  4070  001D38  6E07               	movwf	nrf2401_write@valor^0,c
  4071  001D3A  0E04               	movlw	4
  4072  001D3C  EC79  F010         	call	_nrf2401_write
  4073                           
  4074                           ;./Librerias/nRF24L01_2.h: 189:     nrf2401_write(0x03, 0x03);
  4075  001D40  0E03               	movlw	3
  4076  001D42  6E07               	movwf	nrf2401_write@valor^0,c
  4077  001D44  0E03               	movlw	3
  4078  001D46  EC79  F010         	call	_nrf2401_write
  4079                           
  4080                           ;./Librerias/nRF24L01_2.h: 190:     nrf2401_write(0x06, 0x10 + 0x06);
  4081  001D4A  0E16               	movlw	22
  4082  001D4C  6E07               	movwf	nrf2401_write@valor^0,c
  4083  001D4E  0E06               	movlw	6
  4084  001D50  EC79  F010         	call	_nrf2401_write
  4085                           
  4086                           ;./Librerias/nRF24L01_2.h: 191:     nrf2401_write(0x05, canal);
  4087  001D54  C00D  F007         	movff	nrF2401_init_RX@canal,nrf2401_write@valor
  4088  001D58  0E05               	movlw	5
  4089  001D5A  EC79  F010         	call	_nrf2401_write
  4090                           
  4091                           ;./Librerias/nRF24L01_2.h: 192:     nrf2401_write(0x01, 0x00);
  4092  001D5E  0E00               	movlw	0
  4093  001D60  6E07               	movwf	nrf2401_write@valor^0,c
  4094  001D62  0E01               	movlw	1
  4095  001D64  EC79  F010         	call	_nrf2401_write
  4096                           
  4097                           ;./Librerias/nRF24L01_2.h: 193:     nrf2401_write(0x11, 1);
  4098  001D68  0E01               	movlw	1
  4099  001D6A  6E07               	movwf	nrf2401_write@valor^0,c
  4100  001D6C  0E11               	movlw	17
  4101  001D6E  EC79  F010         	call	_nrf2401_write
  4102                           
  4103                           ;./Librerias/nRF24L01_2.h: 194:     nrf2401_write(0x00, 0x01 + 0x02 +0x04 + 0x08);
  4104  001D72  0E0F               	movlw	15
  4105  001D74  6E07               	movwf	nrf2401_write@valor^0,c
  4106  001D76  0E00               	movlw	0
  4107  001D78  EC79  F010         	call	_nrf2401_write
  4108  001D7C                     
  4109                           ;./Librerias/nRF24L01_2.h: 195:     nrf2401_direccion_TX_RX(direccion_tx , 0x10);
  4110  001D7C  0E0A               	movlw	low _direccion_tx
  4111  001D7E  6E07               	movwf	nrf2401_direccion_TX_RX@direccion_^0,c
  4112  001D80  0E08               	movlw	high _direccion_tx
  4113  001D82  6E08               	movwf	(nrf2401_direccion_TX_RX@direccion_+1)^0,c
  4114  001D84  0E10               	movlw	16
  4115  001D86  6E09               	movwf	nrf2401_direccion_TX_RX@registro^0,c
  4116  001D88  EC83  F00F         	call	_nrf2401_direccion_TX_RX	;wreg free
  4117  001D8C                     
  4118                           ;./Librerias/nRF24L01_2.h: 196:     nrf2401_direccion_TX_RX(direccion_tx, 0x0A);
  4119  001D8C  0E0A               	movlw	low _direccion_tx
  4120  001D8E  6E07               	movwf	nrf2401_direccion_TX_RX@direccion_^0,c
  4121  001D90  0E08               	movlw	high _direccion_tx
  4122  001D92  6E08               	movwf	(nrf2401_direccion_TX_RX@direccion_+1)^0,c
  4123  001D94  0E0A               	movlw	10
  4124  001D96  6E09               	movwf	nrf2401_direccion_TX_RX@registro^0,c
  4125  001D98  EC83  F00F         	call	_nrf2401_direccion_TX_RX	;wreg free
  4126                           
  4127                           ;./Librerias/nRF24L01_2.h: 197:     flush_TX_RX();
  4128  001D9C  EC94  F010         	call	_flush_TX_RX	;wreg free
  4129  001DA0                     
  4130                           ;./Librerias/nRF24L01_2.h: 198:     LATBbits.LATB1 = 1;
  4131  001DA0  828A               	bsf	138,1,c	;volatile
  4132  001DA2  0012               	return		;funcret
  4133  001DA4                     __end_of_nrF2401_init_RX:
  4134                           	callstack 0
  4135                           
  4136 ;; *************** function _nrf2401_direccion_TX_RX *****************
  4137 ;; Defined at:
  4138 ;;		line 111 in file "./Librerias/nRF24L01_2.h"
  4139 ;; Parameters:    Size  Location     Type
  4140 ;;  direccion_      2    6[COMRAM] PTR const unsigned char 
  4141 ;;		 -> direccion_tx(5), 
  4142 ;;  registro        1    8[COMRAM] unsigned char 
  4143 ;; Auto vars:     Size  Location     Type
  4144 ;;  cont_s          1   11[COMRAM] unsigned char 
  4145 ;; Return value:  Size  Location     Type
  4146 ;;                  1    wreg      void 
  4147 ;; Registers used:
  4148 ;;		wreg, status,2, status,0, tblptrl, tblptrh, tblptru, cstack
  4149 ;; Tracked objects:
  4150 ;;		On entry : 0/0
  4151 ;;		On exit  : 0/0
  4152 ;;		Unchanged: 0/0
  4153 ;; Data sizes:     COMRAM   BANK0   BANK1   BANK2   BANK3   BANK4   BANK5   BANK6   BANK7
  4154 ;;      Params:         3       0       0       0       0       0       0       0       0
  4155 ;;      Locals:         1       0       0       0       0       0       0       0       0
  4156 ;;      Temps:          2       0       0       0       0       0       0       0       0
  4157 ;;      Totals:         6       0       0       0       0       0       0       0       0
  4158 ;;Total ram usage:        6 bytes
  4159 ;; Hardware stack levels used: 1
  4160 ;; Hardware stack levels required when called: 5
  4161 ;; This function calls:
  4162 ;;		_spi_s_write
  4163 ;; This function is called by:
  4164 ;;		_nrF2401_init_RX
  4165 ;;		_nrF2401_init_TX
  4166 ;; This function uses a non-reentrant model
  4167 ;;
  4168                           
  4169                           	psect	text17
  4170  001F06                     __ptext17:
  4171                           	callstack 0
  4172  001F06                     _nrf2401_direccion_TX_RX:
  4173                           	callstack 24
  4174  001F06                     
  4175                           ;./Librerias/nRF24L01_2.h: 111: void nrf2401_direccion_TX_RX(const unsigned char *direcc
      +                          ion_, unsigned char registro);./Librerias/nRF24L01_2.h: 112: {;./Librerias/nRF24L01_2.h:
      +                           113:     unsigned char cont_s;;./Librerias/nRF24L01_2.h: 115:     LATCbits.LATC2 = 0;
  4176  001F06  948B               	bcf	139,2,c	;volatile
  4177  001F08                     
  4178                           ;./Librerias/nRF24L01_2.h: 116:     spi_s_write(registro | 0x20);
  4179  001F08  5009               	movf	nrf2401_direccion_TX_RX@registro^0,w,c
  4180  001F0A  0920               	iorlw	32
  4181  001F0C  ECD2  F00E         	call	_spi_s_write
  4182  001F10                     
  4183                           ;./Librerias/nRF24L01_2.h: 117:     for(cont_s = 0; cont_s < 5; cont_s++)
  4184  001F10  0E00               	movlw	0
  4185  001F12  6E0C               	movwf	nrf2401_direccion_TX_RX@cont_s^0,c
  4186  001F14                     l2812:
  4187                           
  4188                           ;./Librerias/nRF24L01_2.h: 118:     {;./Librerias/nRF24L01_2.h: 119:         spi_s_write
      +                          (direccion_[cont_s]);
  4189  001F14  500C               	movf	nrf2401_direccion_TX_RX@cont_s^0,w,c
  4190  001F16  2407               	addwf	nrf2401_direccion_TX_RX@direccion_^0,w,c
  4191  001F18  6E0A               	movwf	??_nrf2401_direccion_TX_RX^0,c
  4192  001F1A  0E00               	movlw	0
  4193  001F1C  2008               	addwfc	(nrf2401_direccion_TX_RX@direccion_+1)^0,w,c
  4194  001F1E  6E0B               	movwf	(??_nrf2401_direccion_TX_RX+1)^0,c
  4195  001F20  C00A  FFF6         	movff	??_nrf2401_direccion_TX_RX,tblptrl
  4196  001F24  C00B  FFF7         	movff	??_nrf2401_direccion_TX_RX+1,tblptrh
  4197  001F28                     	if	0	;tblptru may be non-zero
  4198  001F28                     	endif
  4199  001F28                     	if	0	;tblptru may be non-zero
  4200  001F28                     	endif
  4201  001F28  0008               	tblrd		*
  4202  001F2A  50F5               	movf	tablat,w,c
  4203  001F2C  ECD2  F00E         	call	_spi_s_write
  4204  001F30                     
  4205                           ;./Librerias/nRF24L01_2.h: 120:     }
  4206  001F30  2A0C               	incf	nrf2401_direccion_TX_RX@cont_s^0,f,c
  4207  001F32  0E04               	movlw	4
  4208  001F34  640C               	cpfsgt	nrf2401_direccion_TX_RX@cont_s^0,c
  4209  001F36  EF9F  F00F         	goto	u2361
  4210  001F3A  EFA1  F00F         	goto	u2360
  4211  001F3E                     u2361:
  4212  001F3E  EF8A  F00F         	goto	l2812
  4213  001F42                     u2360:
  4214  001F42                     
  4215                           ;./Librerias/nRF24L01_2.h: 121:     LATCbits.LATC2 = 1;
  4216  001F42  848B               	bsf	139,2,c	;volatile
  4217  001F44                     
  4218                           ;./Librerias/nRF24L01_2.h: 122:     _delay((unsigned long)((5)*(48000000/4000000.0)));
  4219  001F44  0E14               	movlw	20
  4220  001F46                     u3897:
  4221  001F46  2EE8               	decfsz	wreg,f,c
  4222  001F48  D7FE               	bra	u3897
  4223  001F4A  0012               	return		;funcret
  4224  001F4C                     __end_of_nrf2401_direccion_TX_RX:
  4225                           	callstack 0
  4226                           
  4227 ;; *************** function _flush_TX_RX *****************
  4228 ;; Defined at:
  4229 ;;		line 142 in file "./Librerias/nRF24L01_2.h"
  4230 ;; Parameters:    Size  Location     Type
  4231 ;;		None
  4232 ;; Auto vars:     Size  Location     Type
  4233 ;;		None
  4234 ;; Return value:  Size  Location     Type
  4235 ;;                  1    wreg      void 
  4236 ;; Registers used:
  4237 ;;		wreg, status,2, status,0, cstack
  4238 ;; Tracked objects:
  4239 ;;		On entry : 0/0
  4240 ;;		On exit  : 0/0
  4241 ;;		Unchanged: 0/0
  4242 ;; Data sizes:     COMRAM   BANK0   BANK1   BANK2   BANK3   BANK4   BANK5   BANK6   BANK7
  4243 ;;      Params:         0       0       0       0       0       0       0       0       0
  4244 ;;      Locals:         0       0       0       0       0       0       0       0       0
  4245 ;;      Temps:          0       0       0       0       0       0       0       0       0
  4246 ;;      Totals:         0       0       0       0       0       0       0       0       0
  4247 ;;Total ram usage:        0 bytes
  4248 ;; Hardware stack levels used: 1
  4249 ;; Hardware stack levels required when called: 6
  4250 ;; This function calls:
  4251 ;;		_nrf2401_comando
  4252 ;;		_nrf2401_write
  4253 ;; This function is called by:
  4254 ;;		_nrF2401_init_RX
  4255 ;;		_nrF2401_init_TX
  4256 ;; This function uses a non-reentrant model
  4257 ;;
  4258                           
  4259                           	psect	text18
  4260  002128                     __ptext18:
  4261                           	callstack 0
  4262  002128                     _flush_TX_RX:
  4263                           	callstack 23
  4264  002128                     
  4265                           ;./Librerias/nRF24L01_2.h: 144:     nrf2401_write(0x07, 0x70);
  4266  002128  0E70               	movlw	112
  4267  00212A  6E07               	movwf	nrf2401_write@valor^0,c
  4268  00212C  0E07               	movlw	7
  4269  00212E  EC79  F010         	call	_nrf2401_write
  4270                           
  4271                           ;./Librerias/nRF24L01_2.h: 145:     nrf2401_comando(0xE1);
  4272  002132  0EE1               	movlw	225
  4273  002134  ECB6  F010         	call	_nrf2401_comando
  4274                           
  4275                           ;./Librerias/nRF24L01_2.h: 146:     nrf2401_comando(0xE2);
  4276  002138  0EE2               	movlw	226
  4277  00213A  ECB6  F010         	call	_nrf2401_comando
  4278  00213E  0012               	return		;funcret
  4279  002140                     __end_of_flush_TX_RX:
  4280                           	callstack 0
  4281                           
  4282 ;; *************** function _nrf2401_write *****************
  4283 ;; Defined at:
  4284 ;;		line 81 in file "./Librerias/nRF24L01_2.h"
  4285 ;; Parameters:    Size  Location     Type
  4286 ;;  reg             1    wreg     unsigned char 
  4287 ;;  valor           1    6[COMRAM] unsigned char 
  4288 ;; Auto vars:     Size  Location     Type
  4289 ;;  reg             1    7[COMRAM] unsigned char 
  4290 ;; Return value:  Size  Location     Type
  4291 ;;                  1    wreg      void 
  4292 ;; Registers used:
  4293 ;;		wreg, status,2, status,0, cstack
  4294 ;; Tracked objects:
  4295 ;;		On entry : 0/0
  4296 ;;		On exit  : 0/0
  4297 ;;		Unchanged: 0/0
  4298 ;; Data sizes:     COMRAM   BANK0   BANK1   BANK2   BANK3   BANK4   BANK5   BANK6   BANK7
  4299 ;;      Params:         1       0       0       0       0       0       0       0       0
  4300 ;;      Locals:         1       0       0       0       0       0       0       0       0
  4301 ;;      Temps:          0       0       0       0       0       0       0       0       0
  4302 ;;      Totals:         2       0       0       0       0       0       0       0       0
  4303 ;;Total ram usage:        2 bytes
  4304 ;; Hardware stack levels used: 1
  4305 ;; Hardware stack levels required when called: 5
  4306 ;; This function calls:
  4307 ;;		_spi_s_write
  4308 ;; This function is called by:
  4309 ;;		_flush_TX_RX
  4310 ;;		_nrF2401_init_RX
  4311 ;;		_flush_RX
  4312 ;;		_flush_TX
  4313 ;;		_nrf2401_envia
  4314 ;;		_nrF2401_init_TX
  4315 ;; This function uses a non-reentrant model
  4316 ;;
  4317                           
  4318                           	psect	text19
  4319  0020F2                     __ptext19:
  4320                           	callstack 0
  4321  0020F2                     _nrf2401_write:
  4322                           	callstack 24
  4323                           
  4324                           ;incstack = 0
  4325                           ;nrf2401_write@reg stored from wreg
  4326  0020F2  6E08               	movwf	nrf2401_write@reg^0,c
  4327  0020F4                     
  4328                           ;./Librerias/nRF24L01_2.h: 81: void nrf2401_write(unsigned char reg, unsigned char valor
      +                          );./Librerias/nRF24L01_2.h: 82: {;./Librerias/nRF24L01_2.h: 83:     LATCbits.LATC2 = 0;
  4329  0020F4  948B               	bcf	139,2,c	;volatile
  4330  0020F6                     
  4331                           ;./Librerias/nRF24L01_2.h: 84:     spi_s_write((reg | 0x20));
  4332  0020F6  5008               	movf	nrf2401_write@reg^0,w,c
  4333  0020F8  0920               	iorlw	32
  4334  0020FA  ECD2  F00E         	call	_spi_s_write
  4335                           
  4336                           ;./Librerias/nRF24L01_2.h: 85:     spi_s_write(valor);
  4337  0020FE  5007               	movf	nrf2401_write@valor^0,w,c
  4338  002100  ECD2  F00E         	call	_spi_s_write
  4339  002104                     
  4340                           ;./Librerias/nRF24L01_2.h: 86:     LATCbits.LATC2 = 1;
  4341  002104  848B               	bsf	139,2,c	;volatile
  4342  002106                     
  4343                           ;./Librerias/nRF24L01_2.h: 87:     _delay((unsigned long)((5)*(48000000/4000000.0)));
  4344  002106  0E14               	movlw	20
  4345  002108                     u3907:
  4346  002108  2EE8               	decfsz	wreg,f,c
  4347  00210A  D7FE               	bra	u3907
  4348  00210C  0012               	return		;funcret
  4349  00210E                     __end_of_nrf2401_write:
  4350                           	callstack 0
  4351                           
  4352 ;; *************** function _nrf2401_comando *****************
  4353 ;; Defined at:
  4354 ;;		line 91 in file "./Librerias/nRF24L01_2.h"
  4355 ;; Parameters:    Size  Location     Type
  4356 ;;  comando         1    wreg     unsigned char 
  4357 ;; Auto vars:     Size  Location     Type
  4358 ;;  comando         1    6[COMRAM] unsigned char 
  4359 ;; Return value:  Size  Location     Type
  4360 ;;                  1    wreg      void 
  4361 ;; Registers used:
  4362 ;;		wreg, status,2, status,0, cstack
  4363 ;; Tracked objects:
  4364 ;;		On entry : 0/0
  4365 ;;		On exit  : 0/0
  4366 ;;		Unchanged: 0/0
  4367 ;; Data sizes:     COMRAM   BANK0   BANK1   BANK2   BANK3   BANK4   BANK5   BANK6   BANK7
  4368 ;;      Params:         0       0       0       0       0       0       0       0       0
  4369 ;;      Locals:         1       0       0       0       0       0       0       0       0
  4370 ;;      Temps:          0       0       0       0       0       0       0       0       0
  4371 ;;      Totals:         1       0       0       0       0       0       0       0       0
  4372 ;;Total ram usage:        1 bytes
  4373 ;; Hardware stack levels used: 1
  4374 ;; Hardware stack levels required when called: 5
  4375 ;; This function calls:
  4376 ;;		_spi_s_write
  4377 ;; This function is called by:
  4378 ;;		_flush_TX_RX
  4379 ;;		_flush_RX
  4380 ;;		_flush_TX
  4381 ;; This function uses a non-reentrant model
  4382 ;;
  4383                           
  4384                           	psect	text20
  4385  00216C                     __ptext20:
  4386                           	callstack 0
  4387  00216C                     _nrf2401_comando:
  4388                           	callstack 23
  4389                           
  4390                           ;incstack = 0
  4391                           ;nrf2401_comando@comando stored from wreg
  4392  00216C  6E07               	movwf	nrf2401_comando@comando^0,c
  4393  00216E                     
  4394                           ;./Librerias/nRF24L01_2.h: 91: void nrf2401_comando(unsigned char comando);./Librerias/n
      +                          RF24L01_2.h: 92: {;./Librerias/nRF24L01_2.h: 93:     LATCbits.LATC2 = 0;
  4395  00216E  948B               	bcf	139,2,c	;volatile
  4396  002170                     
  4397                           ;./Librerias/nRF24L01_2.h: 94:     spi_s_write(comando);
  4398  002170  5007               	movf	nrf2401_comando@comando^0,w,c
  4399  002172  ECD2  F00E         	call	_spi_s_write
  4400  002176                     
  4401                           ;./Librerias/nRF24L01_2.h: 95:     LATCbits.LATC2 = 1;
  4402  002176  848B               	bsf	139,2,c	;volatile
  4403  002178                     
  4404                           ;./Librerias/nRF24L01_2.h: 96:     _delay((unsigned long)((5)*(48000000/4000000.0)));
  4405  002178  0E14               	movlw	20
  4406  00217A                     u3917:
  4407  00217A  2EE8               	decfsz	wreg,f,c
  4408  00217C  D7FE               	bra	u3917
  4409  00217E  0012               	return		;funcret
  4410  002180                     __end_of_nrf2401_comando:
  4411                           	callstack 0
  4412                           
  4413 ;; *************** function _spi_s_write *****************
  4414 ;; Defined at:
  4415 ;;		line 61 in file "./Librerias/nRF24L01_2.h"
  4416 ;; Parameters:    Size  Location     Type
  4417 ;;  dato_           1    wreg     unsigned char 
  4418 ;; Auto vars:     Size  Location     Type
  4419 ;;  dato_           1    4[COMRAM] unsigned char 
  4420 ;;  cont_s          1    5[COMRAM] unsigned char 
  4421 ;; Return value:  Size  Location     Type
  4422 ;;                  1    wreg      void 
  4423 ;; Registers used:
  4424 ;;		wreg, status,2, status,0
  4425 ;; Tracked objects:
  4426 ;;		On entry : 0/0
  4427 ;;		On exit  : 0/0
  4428 ;;		Unchanged: 0/0
  4429 ;; Data sizes:     COMRAM   BANK0   BANK1   BANK2   BANK3   BANK4   BANK5   BANK6   BANK7
  4430 ;;      Params:         0       0       0       0       0       0       0       0       0
  4431 ;;      Locals:         2       0       0       0       0       0       0       0       0
  4432 ;;      Temps:          0       0       0       0       0       0       0       0       0
  4433 ;;      Totals:         2       0       0       0       0       0       0       0       0
  4434 ;;Total ram usage:        2 bytes
  4435 ;; Hardware stack levels used: 1
  4436 ;; Hardware stack levels required when called: 4
  4437 ;; This function calls:
  4438 ;;		Nothing
  4439 ;; This function is called by:
  4440 ;;		_nrf2401_write
  4441 ;;		_nrf2401_comando
  4442 ;;		_nrf2401_read
  4443 ;;		_nrf2401_direccion_TX_RX
  4444 ;;		_nrf2401_recibe
  4445 ;;		_nrf2401_envia
  4446 ;; This function uses a non-reentrant model
  4447 ;;
  4448                           
  4449                           	psect	text21
  4450  001DA4                     __ptext21:
  4451                           	callstack 0
  4452  001DA4                     _spi_s_write:
  4453                           	callstack 25
  4454                           
  4455                           ;incstack = 0
  4456                           ;spi_s_write@dato_ stored from wreg
  4457  001DA4  6E05               	movwf	spi_s_write@dato_^0,c
  4458  001DA6                     
  4459                           ;./Librerias/nRF24L01_2.h: 61: void spi_s_write(unsigned char dato_);./Librerias/nRF24L0
      +                          1_2.h: 62: {;./Librerias/nRF24L01_2.h: 63:     unsigned char cont_s = 0;
  4460  001DA6  0E00               	movlw	0
  4461  001DA8  6E06               	movwf	spi_s_write@cont_s^0,c
  4462                           
  4463                           ;./Librerias/nRF24L01_2.h: 65:     for(cont_s = 0; cont_s < 8; cont_s++)
  4464  001DAA  0E00               	movlw	0
  4465  001DAC  6E06               	movwf	spi_s_write@cont_s^0,c
  4466  001DAE                     l256:
  4467                           
  4468                           ;./Librerias/nRF24L01_2.h: 66:     {;./Librerias/nRF24L01_2.h: 68:         if((dato_ & 0
      +                          x80) != 0) LATCbits.LATC1 = 1;
  4469  001DAE  AE05               	btfss	spi_s_write@dato_^0,7,c
  4470  001DB0  EFDC  F00E         	goto	u31
  4471  001DB4  EFDE  F00E         	goto	u30
  4472  001DB8                     u31:
  4473  001DB8  EFE1  F00E         	goto	l258
  4474  001DBC                     u30:
  4475  001DBC  828B               	bsf	139,1,c	;volatile
  4476  001DBE  EFE2  F00E         	goto	l1204
  4477  001DC2                     l258:
  4478  001DC2  928B               	bcf	139,1,c	;volatile
  4479  001DC4                     l1204:
  4480                           
  4481                           ;./Librerias/nRF24L01_2.h: 70:         dato_ <<= 1;
  4482  001DC4  90D8               	bcf	status,0,c
  4483  001DC6  3605               	rlcf	spi_s_write@dato_^0,f,c
  4484  001DC8                     
  4485                           ;./Librerias/nRF24L01_2.h: 72:         LATBbits.LATB2 = 1;
  4486  001DC8  848A               	bsf	138,2,c	;volatile
  4487  001DCA                     
  4488                           ;./Librerias/nRF24L01_2.h: 73:         _delay((unsigned long)((5)*(48000000/4000000.0)))
      +                          ;
  4489  001DCA  0E14               	movlw	20
  4490  001DCC                     u3927:
  4491  001DCC  2EE8               	decfsz	wreg,f,c
  4492  001DCE  D7FE               	bra	u3927
  4493  001DD0                     
  4494                           ;./Librerias/nRF24L01_2.h: 74:         LATBbits.LATB2 = 0;
  4495  001DD0  948A               	bcf	138,2,c	;volatile
  4496  001DD2                     
  4497                           ;./Librerias/nRF24L01_2.h: 75:         _delay((unsigned long)((5)*(48000000/4000000.0)))
      +                          ;
  4498  001DD2  0E14               	movlw	20
  4499  001DD4                     u3937:
  4500  001DD4  2EE8               	decfsz	wreg,f,c
  4501  001DD6  D7FE               	bra	u3937
  4502  001DD8                     
  4503                           ;./Librerias/nRF24L01_2.h: 76:     }
  4504  001DD8  2A06               	incf	spi_s_write@cont_s^0,f,c
  4505  001DDA  0E07               	movlw	7
  4506  001DDC  6406               	cpfsgt	spi_s_write@cont_s^0,c
  4507  001DDE  EFF3  F00E         	goto	u41
  4508  001DE2  EFF5  F00E         	goto	u40
  4509  001DE6                     u41:
  4510  001DE6  EFD7  F00E         	goto	l256
  4511  001DEA                     u40:
  4512  001DEA  0012               	return		;funcret
  4513  001DEC                     __end_of_spi_s_write:
  4514                           	callstack 0
  4515                           
  4516 ;; *************** function _SYSTEM_Initialize *****************
  4517 ;; Defined at:
  4518 ;;		line 50 in file "mcc_generated_files/mcc.c"
  4519 ;; Parameters:    Size  Location     Type
  4520 ;;		None
  4521 ;; Auto vars:     Size  Location     Type
  4522 ;;		None
  4523 ;; Return value:  Size  Location     Type
  4524 ;;                  1    wreg      void 
  4525 ;; Registers used:
  4526 ;;		wreg, status,2, status,0, cstack
  4527 ;; Tracked objects:
  4528 ;;		On entry : 0/0
  4529 ;;		On exit  : 0/0
  4530 ;;		Unchanged: 0/0
  4531 ;; Data sizes:     COMRAM   BANK0   BANK1   BANK2   BANK3   BANK4   BANK5   BANK6   BANK7
  4532 ;;      Params:         0       0       0       0       0       0       0       0       0
  4533 ;;      Locals:         0       0       0       0       0       0       0       0       0
  4534 ;;      Temps:          0       0       0       0       0       0       0       0       0
  4535 ;;      Totals:         0       0       0       0       0       0       0       0       0
  4536 ;;Total ram usage:        0 bytes
  4537 ;; Hardware stack levels used: 1
  4538 ;; Hardware stack levels required when called: 6
  4539 ;; This function calls:
  4540 ;;		_ADC_Initialize
  4541 ;;		_CCP2_Initialize
  4542 ;;		_EUSART1_Initialize
  4543 ;;		_INTERRUPT_Initialize
  4544 ;;		_OSCILLATOR_Initialize
  4545 ;;		_PIN_MANAGER_Initialize
  4546 ;;		_TMR1_Initialize
  4547 ;; This function is called by:
  4548 ;;		_main
  4549 ;; This function uses a non-reentrant model
  4550 ;;
  4551                           
  4552                           	psect	text22
  4553  0020B8                     __ptext22:
  4554                           	callstack 0
  4555  0020B8                     _SYSTEM_Initialize:
  4556                           	callstack 24
  4557  0020B8                     
  4558                           ;mcc_generated_files/mcc.c: 53:     INTERRUPT_Initialize();
  4559  0020B8  ECE5  F010         	call	_INTERRUPT_Initialize	;wreg free
  4560  0020BC                     
  4561                           ;mcc_generated_files/mcc.c: 54:     PIN_MANAGER_Initialize();
  4562  0020BC  ECFD  F00F         	call	_PIN_MANAGER_Initialize	;wreg free
  4563  0020C0                     
  4564                           ;mcc_generated_files/mcc.c: 55:     OSCILLATOR_Initialize();
  4565  0020C0  EC3D  F010         	call	_OSCILLATOR_Initialize	;wreg free
  4566  0020C4                     
  4567                           ;mcc_generated_files/mcc.c: 56:     CCP2_Initialize();
  4568  0020C4  ECC0  F010         	call	_CCP2_Initialize	;wreg free
  4569  0020C8                     
  4570                           ;mcc_generated_files/mcc.c: 57:     TMR1_Initialize();
  4571  0020C8  EC14  F010         	call	_TMR1_Initialize	;wreg free
  4572  0020CC                     
  4573                           ;mcc_generated_files/mcc.c: 58:     ADC_Initialize();
  4574  0020CC  ECAB  F010         	call	_ADC_Initialize	;wreg free
  4575  0020D0                     
  4576                           ;mcc_generated_files/mcc.c: 59:     EUSART1_Initialize();
  4577  0020D0  ECA6  F00F         	call	_EUSART1_Initialize	;wreg free
  4578  0020D4  0012               	return		;funcret
  4579  0020D6                     __end_of_SYSTEM_Initialize:
  4580                           	callstack 0
  4581                           
  4582 ;; *************** function _TMR1_Initialize *****************
  4583 ;; Defined at:
  4584 ;;		line 65 in file "mcc_generated_files/tmr1.c"
  4585 ;; Parameters:    Size  Location     Type
  4586 ;;		None
  4587 ;; Auto vars:     Size  Location     Type
  4588 ;;		None
  4589 ;; Return value:  Size  Location     Type
  4590 ;;                  1    wreg      void 
  4591 ;; Registers used:
  4592 ;;		wreg, status,2, status,0, cstack
  4593 ;; Tracked objects:
  4594 ;;		On entry : 0/0
  4595 ;;		On exit  : 0/0
  4596 ;;		Unchanged: 0/0
  4597 ;; Data sizes:     COMRAM   BANK0   BANK1   BANK2   BANK3   BANK4   BANK5   BANK6   BANK7
  4598 ;;      Params:         0       0       0       0       0       0       0       0       0
  4599 ;;      Locals:         0       0       0       0       0       0       0       0       0
  4600 ;;      Temps:          0       0       0       0       0       0       0       0       0
  4601 ;;      Totals:         0       0       0       0       0       0       0       0       0
  4602 ;;Total ram usage:        0 bytes
  4603 ;; Hardware stack levels used: 1
  4604 ;; Hardware stack levels required when called: 5
  4605 ;; This function calls:
  4606 ;;		_TMR1_SetInterruptHandler
  4607 ;; This function is called by:
  4608 ;;		_SYSTEM_Initialize
  4609 ;; This function uses a non-reentrant model
  4610 ;;
  4611                           
  4612                           	psect	text23
  4613  002028                     __ptext23:
  4614                           	callstack 0
  4615  002028                     _TMR1_Initialize:
  4616                           	callstack 24
  4617  002028                     
  4618                           ;mcc_generated_files/tmr1.c: 70:     T1GCON = 0x00;
  4619  002028  0E00               	movlw	0
  4620  00202A  6ECC               	movwf	204,c	;volatile
  4621                           
  4622                           ;mcc_generated_files/tmr1.c: 73:     TMR1H = 0xD1;
  4623  00202C  0ED1               	movlw	209
  4624  00202E  6ECF               	movwf	207,c	;volatile
  4625                           
  4626                           ;mcc_generated_files/tmr1.c: 76:     TMR1L = 0x20;
  4627  002030  0E20               	movlw	32
  4628  002032  6ECE               	movwf	206,c	;volatile
  4629  002034                     
  4630                           ;mcc_generated_files/tmr1.c: 79:     timer1ReloadVal=TMR1;
  4631  002034  CFCE F04F          	movff	4046,_timer1ReloadVal	;volatile
  4632  002038  CFCF F050          	movff	4047,_timer1ReloadVal+1	;volatile
  4633  00203C                     
  4634                           ;mcc_generated_files/tmr1.c: 82:     PIR1bits.TMR1IF = 0;
  4635  00203C  909E               	bcf	158,0,c	;volatile
  4636  00203E                     
  4637                           ;mcc_generated_files/tmr1.c: 85:     PIE1bits.TMR1IE = 1;
  4638  00203E  809D               	bsf	157,0,c	;volatile
  4639  002040                     
  4640                           ;mcc_generated_files/tmr1.c: 88:     TMR1_SetInterruptHandler(TMR1_DefaultInterruptHandl
      +                          er);
  4641  002040  0ECE               	movlw	low _TMR1_DefaultInterruptHandler
  4642  002042  6E05               	movwf	TMR1_SetInterruptHandler@InterruptHandler^0,c
  4643  002044  0E21               	movlw	high _TMR1_DefaultInterruptHandler
  4644  002046  6E06               	movwf	(TMR1_SetInterruptHandler@InterruptHandler+1)^0,c
  4645  002048  ECCD  F010         	call	_TMR1_SetInterruptHandler	;wreg free
  4646  00204C                     
  4647                           ;mcc_generated_files/tmr1.c: 91:     T1CON = 0x01;
  4648  00204C  0E01               	movlw	1
  4649  00204E  6ECD               	movwf	205,c	;volatile
  4650  002050  0012               	return		;funcret
  4651  002052                     __end_of_TMR1_Initialize:
  4652                           	callstack 0
  4653                           
  4654 ;; *************** function _TMR1_SetInterruptHandler *****************
  4655 ;; Defined at:
  4656 ;;		line 189 in file "mcc_generated_files/tmr1.c"
  4657 ;; Parameters:    Size  Location     Type
  4658 ;;  InterruptHan    2    4[COMRAM] PTR FTN()void 
  4659 ;;		 -> TMR1_DefaultInterruptHandler(1), 
  4660 ;; Auto vars:     Size  Location     Type
  4661 ;;		None
  4662 ;; Return value:  Size  Location     Type
  4663 ;;                  1    wreg      void 
  4664 ;; Registers used:
  4665 ;;		wreg, status,2, status,0
  4666 ;; Tracked objects:
  4667 ;;		On entry : 0/0
  4668 ;;		On exit  : 0/0
  4669 ;;		Unchanged: 0/0
  4670 ;; Data sizes:     COMRAM   BANK0   BANK1   BANK2   BANK3   BANK4   BANK5   BANK6   BANK7
  4671 ;;      Params:         2       0       0       0       0       0       0       0       0
  4672 ;;      Locals:         0       0       0       0       0       0       0       0       0
  4673 ;;      Temps:          0       0       0       0       0       0       0       0       0
  4674 ;;      Totals:         2       0       0       0       0       0       0       0       0
  4675 ;;Total ram usage:        2 bytes
  4676 ;; Hardware stack levels used: 1
  4677 ;; Hardware stack levels required when called: 4
  4678 ;; This function calls:
  4679 ;;		Nothing
  4680 ;; This function is called by:
  4681 ;;		_TMR1_Initialize
  4682 ;; This function uses a non-reentrant model
  4683 ;;
  4684                           
  4685                           	psect	text24
  4686  00219A                     __ptext24:
  4687                           	callstack 0
  4688  00219A                     _TMR1_SetInterruptHandler:
  4689                           	callstack 24
  4690  00219A                     
  4691                           ;mcc_generated_files/tmr1.c: 190:     TMR1_InterruptHandler = InterruptHandler;
  4692  00219A  C005  F04D         	movff	TMR1_SetInterruptHandler@InterruptHandler,_TMR1_InterruptHandler
  4693  00219E  C006  F04E         	movff	TMR1_SetInterruptHandler@InterruptHandler+1,_TMR1_InterruptHandler+1
  4694  0021A2  0012               	return		;funcret
  4695  0021A4                     __end_of_TMR1_SetInterruptHandler:
  4696                           	callstack 0
  4697                           
  4698 ;; *************** function _PIN_MANAGER_Initialize *****************
  4699 ;; Defined at:
  4700 ;;		line 55 in file "mcc_generated_files/pin_manager.c"
  4701 ;; Parameters:    Size  Location     Type
  4702 ;;		None
  4703 ;; Auto vars:     Size  Location     Type
  4704 ;;		None
  4705 ;; Return value:  Size  Location     Type
  4706 ;;                  1    wreg      void 
  4707 ;; Registers used:
  4708 ;;		wreg, status,2
  4709 ;; Tracked objects:
  4710 ;;		On entry : 0/0
  4711 ;;		On exit  : 0/0
  4712 ;;		Unchanged: 0/0
  4713 ;; Data sizes:     COMRAM   BANK0   BANK1   BANK2   BANK3   BANK4   BANK5   BANK6   BANK7
  4714 ;;      Params:         0       0       0       0       0       0       0       0       0
  4715 ;;      Locals:         0       0       0       0       0       0       0       0       0
  4716 ;;      Temps:          0       0       0       0       0       0       0       0       0
  4717 ;;      Totals:         0       0       0       0       0       0       0       0       0
  4718 ;;Total ram usage:        0 bytes
  4719 ;; Hardware stack levels used: 1
  4720 ;; Hardware stack levels required when called: 4
  4721 ;; This function calls:
  4722 ;;		Nothing
  4723 ;; This function is called by:
  4724 ;;		_SYSTEM_Initialize
  4725 ;; This function uses a non-reentrant model
  4726 ;;
  4727                           
  4728                           	psect	text25
  4729  001FFA                     __ptext25:
  4730                           	callstack 0
  4731  001FFA                     _PIN_MANAGER_Initialize:
  4732                           	callstack 25
  4733  001FFA                     
  4734                           ;mcc_generated_files/pin_manager.c: 60:     LATA = 0x00;
  4735  001FFA  0E00               	movlw	0
  4736  001FFC  6E89               	movwf	137,c	;volatile
  4737                           
  4738                           ;mcc_generated_files/pin_manager.c: 61:     LATB = 0x00;
  4739  001FFE  0E00               	movlw	0
  4740  002000  6E8A               	movwf	138,c	;volatile
  4741                           
  4742                           ;mcc_generated_files/pin_manager.c: 62:     LATC = 0x00;
  4743  002002  0E00               	movlw	0
  4744  002004  6E8B               	movwf	139,c	;volatile
  4745                           
  4746                           ;mcc_generated_files/pin_manager.c: 67:     TRISA = 0xC7;
  4747  002006  0EC7               	movlw	199
  4748  002008  6E92               	movwf	146,c	;volatile
  4749                           
  4750                           ;mcc_generated_files/pin_manager.c: 68:     TRISB = 0xFE;
  4751  00200A  0EFE               	movlw	254
  4752  00200C  6E93               	movwf	147,c	;volatile
  4753                           
  4754                           ;mcc_generated_files/pin_manager.c: 69:     TRISC = 0x87;
  4755  00200E  0E87               	movlw	135
  4756  002010  6E94               	movwf	148,c	;volatile
  4757                           
  4758                           ;mcc_generated_files/pin_manager.c: 74:     ANSELC = 0x04;
  4759  002012  0E04               	movlw	4
  4760  002014  010F               	movlb	15	; () banked
  4761  002016  6F5D               	movwf	93,b	;volatile
  4762                           
  4763                           ;mcc_generated_files/pin_manager.c: 75:     ANSELB = 0x3E;
  4764  002018  0E3E               	movlw	62
  4765  00201A  6F5C               	movwf	92,b	;volatile
  4766                           
  4767                           ;mcc_generated_files/pin_manager.c: 76:     ANSELA = 0x07;
  4768  00201C  0E07               	movlw	7
  4769  00201E  6F5B               	movwf	91,b	;volatile
  4770                           
  4771                           ;mcc_generated_files/pin_manager.c: 81:     WPUB = 0x00;
  4772  002020  0E00               	movlw	0
  4773  002022  6E85               	movwf	133,c	;volatile
  4774  002024                     
  4775                           ; BSR set to: 15
  4776                           ;mcc_generated_files/pin_manager.c: 82:     INTCON2bits.nRBPU = 1;
  4777  002024  8EF1               	bsf	241,7,c	;volatile
  4778  002026                     
  4779                           ; BSR set to: 15
  4780  002026  0012               	return		;funcret
  4781  002028                     __end_of_PIN_MANAGER_Initialize:
  4782                           	callstack 0
  4783                           
  4784 ;; *************** function _OSCILLATOR_Initialize *****************
  4785 ;; Defined at:
  4786 ;;		line 62 in file "mcc_generated_files/mcc.c"
  4787 ;; Parameters:    Size  Location     Type
  4788 ;;		None
  4789 ;; Auto vars:     Size  Location     Type
  4790 ;;		None
  4791 ;; Return value:  Size  Location     Type
  4792 ;;                  1    wreg      void 
  4793 ;; Registers used:
  4794 ;;		wreg, status,2
  4795 ;; Tracked objects:
  4796 ;;		On entry : 0/0
  4797 ;;		On exit  : 0/0
  4798 ;;		Unchanged: 0/0
  4799 ;; Data sizes:     COMRAM   BANK0   BANK1   BANK2   BANK3   BANK4   BANK5   BANK6   BANK7
  4800 ;;      Params:         0       0       0       0       0       0       0       0       0
  4801 ;;      Locals:         0       0       0       0       0       0       0       0       0
  4802 ;;      Temps:          0       0       0       0       0       0       0       0       0
  4803 ;;      Totals:         0       0       0       0       0       0       0       0       0
  4804 ;;Total ram usage:        0 bytes
  4805 ;; Hardware stack levels used: 1
  4806 ;; Hardware stack levels required when called: 4
  4807 ;; This function calls:
  4808 ;;		Nothing
  4809 ;; This function is called by:
  4810 ;;		_SYSTEM_Initialize
  4811 ;; This function uses a non-reentrant model
  4812 ;;
  4813                           
  4814                           	psect	text26
  4815  00207A                     __ptext26:
  4816                           	callstack 0
  4817  00207A                     _OSCILLATOR_Initialize:
  4818                           	callstack 25
  4819  00207A                     
  4820                           ;mcc_generated_files/mcc.c: 65:     OSCCON = 0x70;
  4821  00207A  0E70               	movlw	112
  4822  00207C  6ED3               	movwf	211,c	;volatile
  4823                           
  4824                           ;mcc_generated_files/mcc.c: 67:     OSCCON2 = 0x00;
  4825  00207E  0E00               	movlw	0
  4826  002080  6ED2               	movwf	210,c	;volatile
  4827                           
  4828                           ;mcc_generated_files/mcc.c: 69:     OSCTUNE = 0x80;
  4829  002082  0E80               	movlw	128
  4830  002084  6E9B               	movwf	155,c	;volatile
  4831                           
  4832                           ;mcc_generated_files/mcc.c: 71:     ACTCON = 0x00;
  4833  002086  0E00               	movlw	0
  4834  002088  6EB5               	movwf	181,c	;volatile
  4835  00208A                     l130:
  4836                           
  4837                           ;mcc_generated_files/mcc.c: 73:     while(PLLRDY == 0)
  4838  00208A  AED2               	btfss	4050,7,c	;volatile
  4839  00208C  EF4A  F010         	goto	u1021
  4840  002090  EF4C  F010         	goto	u1020
  4841  002094                     u1021:
  4842  002094  EF45  F010         	goto	l130
  4843  002098                     u1020:
  4844  002098  0012               	return		;funcret
  4845  00209A                     __end_of_OSCILLATOR_Initialize:
  4846                           	callstack 0
  4847                           
  4848 ;; *************** function _INTERRUPT_Initialize *****************
  4849 ;; Defined at:
  4850 ;;		line 52 in file "mcc_generated_files/interrupt_manager.c"
  4851 ;; Parameters:    Size  Location     Type
  4852 ;;		None
  4853 ;; Auto vars:     Size  Location     Type
  4854 ;;		None
  4855 ;; Return value:  Size  Location     Type
  4856 ;;                  1    wreg      void 
  4857 ;; Registers used:
  4858 ;;		None
  4859 ;; Tracked objects:
  4860 ;;		On entry : 0/0
  4861 ;;		On exit  : 0/0
  4862 ;;		Unchanged: 0/0
  4863 ;; Data sizes:     COMRAM   BANK0   BANK1   BANK2   BANK3   BANK4   BANK5   BANK6   BANK7
  4864 ;;      Params:         0       0       0       0       0       0       0       0       0
  4865 ;;      Locals:         0       0       0       0       0       0       0       0       0
  4866 ;;      Temps:          0       0       0       0       0       0       0       0       0
  4867 ;;      Totals:         0       0       0       0       0       0       0       0       0
  4868 ;;Total ram usage:        0 bytes
  4869 ;; Hardware stack levels used: 1
  4870 ;; Hardware stack levels required when called: 4
  4871 ;; This function calls:
  4872 ;;		Nothing
  4873 ;; This function is called by:
  4874 ;;		_SYSTEM_Initialize
  4875 ;; This function uses a non-reentrant model
  4876 ;;
  4877                           
  4878                           	psect	text27
  4879  0021CA                     __ptext27:
  4880                           	callstack 0
  4881  0021CA                     _INTERRUPT_Initialize:
  4882                           	callstack 25
  4883  0021CA                     
  4884                           ;mcc_generated_files/interrupt_manager.c: 55:     RCONbits.IPEN = 0;
  4885  0021CA  9ED0               	bcf	208,7,c	;volatile
  4886  0021CC  0012               	return		;funcret
  4887  0021CE                     __end_of_INTERRUPT_Initialize:
  4888                           	callstack 0
  4889                           
  4890 ;; *************** function _EUSART1_Initialize *****************
  4891 ;; Defined at:
  4892 ;;		line 66 in file "mcc_generated_files/eusart1.c"
  4893 ;; Parameters:    Size  Location     Type
  4894 ;;		None
  4895 ;; Auto vars:     Size  Location     Type
  4896 ;;		None
  4897 ;; Return value:  Size  Location     Type
  4898 ;;                  1    wreg      void 
  4899 ;; Registers used:
  4900 ;;		wreg, status,2, status,0, cstack
  4901 ;; Tracked objects:
  4902 ;;		On entry : 0/0
  4903 ;;		On exit  : 0/0
  4904 ;;		Unchanged: 0/0
  4905 ;; Data sizes:     COMRAM   BANK0   BANK1   BANK2   BANK3   BANK4   BANK5   BANK6   BANK7
  4906 ;;      Params:         0       0       0       0       0       0       0       0       0
  4907 ;;      Locals:         0       0       0       0       0       0       0       0       0
  4908 ;;      Temps:          0       0       0       0       0       0       0       0       0
  4909 ;;      Totals:         0       0       0       0       0       0       0       0       0
  4910 ;;Total ram usage:        0 bytes
  4911 ;; Hardware stack levels used: 1
  4912 ;; Hardware stack levels required when called: 5
  4913 ;; This function calls:
  4914 ;;		_EUSART1_SetErrorHandler
  4915 ;;		_EUSART1_SetFramingErrorHandler
  4916 ;;		_EUSART1_SetOverrunErrorHandler
  4917 ;; This function is called by:
  4918 ;;		_SYSTEM_Initialize
  4919 ;; This function uses a non-reentrant model
  4920 ;;
  4921                           
  4922                           	psect	text28
  4923  001F4C                     __ptext28:
  4924                           	callstack 0
  4925  001F4C                     _EUSART1_Initialize:
  4926                           	callstack 24
  4927  001F4C                     
  4928                           ;mcc_generated_files/eusart1.c: 71:     BAUDCON1 = 0x08;
  4929  001F4C  0E08               	movlw	8
  4930  001F4E  6EB8               	movwf	184,c	;volatile
  4931                           
  4932                           ;mcc_generated_files/eusart1.c: 74:     RCSTA1 = 0x90;
  4933  001F50  0E90               	movlw	144
  4934  001F52  6EAB               	movwf	171,c	;volatile
  4935                           
  4936                           ;mcc_generated_files/eusart1.c: 77:     TXSTA1 = 0x24;
  4937  001F54  0E24               	movlw	36
  4938  001F56  6EAC               	movwf	172,c	;volatile
  4939                           
  4940                           ;mcc_generated_files/eusart1.c: 80:     SPBRG1 = 0xE1;
  4941  001F58  0EE1               	movlw	225
  4942  001F5A  6EAF               	movwf	175,c	;volatile
  4943                           
  4944                           ;mcc_generated_files/eusart1.c: 83:     SPBRGH1 = 0x04;
  4945  001F5C  0E04               	movlw	4
  4946  001F5E  6EB0               	movwf	176,c	;volatile
  4947  001F60                     
  4948                           ;mcc_generated_files/eusart1.c: 86:     EUSART1_SetFramingErrorHandler(EUSART1_DefaultFr
      +                          amingErrorHandler);
  4949  001F60  0E00               	movlw	0
  4950  001F62  6E05               	movwf	EUSART1_SetFramingErrorHandler@interruptHandler^0,c
  4951  001F64  0E00               	movlw	0
  4952  001F66  6E06               	movwf	(EUSART1_SetFramingErrorHandler@interruptHandler+1)^0,c
  4953  001F68  ECD7  F010         	call	_EUSART1_SetFramingErrorHandler	;wreg free
  4954  001F6C                     
  4955                           ;mcc_generated_files/eusart1.c: 87:     EUSART1_SetOverrunErrorHandler(EUSART1_DefaultOv
      +                          errunErrorHandler);
  4956  001F6C  0E00               	movlw	0
  4957  001F6E  6E05               	movwf	EUSART1_SetOverrunErrorHandler@interruptHandler^0,c
  4958  001F70  0E00               	movlw	0
  4959  001F72  6E06               	movwf	(EUSART1_SetOverrunErrorHandler@interruptHandler+1)^0,c
  4960  001F74  ECD2  F010         	call	_EUSART1_SetOverrunErrorHandler	;wreg free
  4961  001F78                     
  4962                           ;mcc_generated_files/eusart1.c: 88:     EUSART1_SetErrorHandler(EUSART1_DefaultErrorHand
      +                          ler);
  4963  001F78  0E00               	movlw	0
  4964  001F7A  6E05               	movwf	EUSART1_SetErrorHandler@interruptHandler^0,c
  4965  001F7C  0E00               	movlw	0
  4966  001F7E  6E06               	movwf	(EUSART1_SetErrorHandler@interruptHandler+1)^0,c
  4967  001F80  ECDC  F010         	call	_EUSART1_SetErrorHandler	;wreg free
  4968  001F84                     
  4969                           ;mcc_generated_files/eusart1.c: 90:     eusart1RxLastError.status = 0;
  4970  001F84  0E00               	movlw	0
  4971  001F86  6E5A               	movwf	_eusart1RxLastError^0,c	;volatile
  4972  001F88  0012               	return		;funcret
  4973  001F8A                     __end_of_EUSART1_Initialize:
  4974                           	callstack 0
  4975                           
  4976 ;; *************** function _EUSART1_SetOverrunErrorHandler *****************
  4977 ;; Defined at:
  4978 ;;		line 178 in file "mcc_generated_files/eusart1.c"
  4979 ;; Parameters:    Size  Location     Type
  4980 ;;  interruptHan    2    4[COMRAM] PTR FTN()void 
  4981 ;;		 -> EUSART1_DefaultOverrunErrorHandler(1), 
  4982 ;; Auto vars:     Size  Location     Type
  4983 ;;		None
  4984 ;; Return value:  Size  Location     Type
  4985 ;;                  1    wreg      void 
  4986 ;; Registers used:
  4987 ;;		wreg, status,2, status,0
  4988 ;; Tracked objects:
  4989 ;;		On entry : 0/0
  4990 ;;		On exit  : 0/0
  4991 ;;		Unchanged: 0/0
  4992 ;; Data sizes:     COMRAM   BANK0   BANK1   BANK2   BANK3   BANK4   BANK5   BANK6   BANK7
  4993 ;;      Params:         2       0       0       0       0       0       0       0       0
  4994 ;;      Locals:         0       0       0       0       0       0       0       0       0
  4995 ;;      Temps:          0       0       0       0       0       0       0       0       0
  4996 ;;      Totals:         2       0       0       0       0       0       0       0       0
  4997 ;;Total ram usage:        2 bytes
  4998 ;; Hardware stack levels used: 1
  4999 ;; Hardware stack levels required when called: 4
  5000 ;; This function calls:
  5001 ;;		Nothing
  5002 ;; This function is called by:
  5003 ;;		_EUSART1_Initialize
  5004 ;; This function uses a non-reentrant model
  5005 ;;
  5006                           
  5007                           	psect	text29
  5008  0021A4                     __ptext29:
  5009                           	callstack 0
  5010  0021A4                     _EUSART1_SetOverrunErrorHandler:
  5011                           	callstack 24
  5012  0021A4                     
  5013                           ;mcc_generated_files/eusart1.c: 179:     EUSART1_OverrunErrorHandler = interruptHandler;
  5014  0021A4  C005  F090         	movff	EUSART1_SetOverrunErrorHandler@interruptHandler,_EUSART1_OverrunErrorHandler
  5015  0021A8  C006  F091         	movff	EUSART1_SetOverrunErrorHandler@interruptHandler+1,_EUSART1_OverrunErrorHandler+1
  5016  0021AC  0012               	return		;funcret
  5017  0021AE                     __end_of_EUSART1_SetOverrunErrorHandler:
  5018                           	callstack 0
  5019                           
  5020 ;; *************** function _EUSART1_SetFramingErrorHandler *****************
  5021 ;; Defined at:
  5022 ;;		line 174 in file "mcc_generated_files/eusart1.c"
  5023 ;; Parameters:    Size  Location     Type
  5024 ;;  interruptHan    2    4[COMRAM] PTR FTN()void 
  5025 ;;		 -> EUSART1_DefaultFramingErrorHandler(1), 
  5026 ;; Auto vars:     Size  Location     Type
  5027 ;;		None
  5028 ;; Return value:  Size  Location     Type
  5029 ;;                  1    wreg      void 
  5030 ;; Registers used:
  5031 ;;		wreg, status,2, status,0
  5032 ;; Tracked objects:
  5033 ;;		On entry : 0/0
  5034 ;;		On exit  : 0/0
  5035 ;;		Unchanged: 0/0
  5036 ;; Data sizes:     COMRAM   BANK0   BANK1   BANK2   BANK3   BANK4   BANK5   BANK6   BANK7
  5037 ;;      Params:         2       0       0       0       0       0       0       0       0
  5038 ;;      Locals:         0       0       0       0       0       0       0       0       0
  5039 ;;      Temps:          0       0       0       0       0       0       0       0       0
  5040 ;;      Totals:         2       0       0       0       0       0       0       0       0
  5041 ;;Total ram usage:        2 bytes
  5042 ;; Hardware stack levels used: 1
  5043 ;; Hardware stack levels required when called: 4
  5044 ;; This function calls:
  5045 ;;		Nothing
  5046 ;; This function is called by:
  5047 ;;		_EUSART1_Initialize
  5048 ;; This function uses a non-reentrant model
  5049 ;;
  5050                           
  5051                           	psect	text30
  5052  0021AE                     __ptext30:
  5053                           	callstack 0
  5054  0021AE                     _EUSART1_SetFramingErrorHandler:
  5055                           	callstack 24
  5056  0021AE                     
  5057                           ;mcc_generated_files/eusart1.c: 175:     EUSART1_FramingErrorHandler = interruptHandler;
  5058  0021AE  C005  F092         	movff	EUSART1_SetFramingErrorHandler@interruptHandler,_EUSART1_FramingErrorHandler
  5059  0021B2  C006  F093         	movff	EUSART1_SetFramingErrorHandler@interruptHandler+1,_EUSART1_FramingErrorHandler+1
  5060  0021B6  0012               	return		;funcret
  5061  0021B8                     __end_of_EUSART1_SetFramingErrorHandler:
  5062                           	callstack 0
  5063                           
  5064 ;; *************** function _EUSART1_SetErrorHandler *****************
  5065 ;; Defined at:
  5066 ;;		line 182 in file "mcc_generated_files/eusart1.c"
  5067 ;; Parameters:    Size  Location     Type
  5068 ;;  interruptHan    2    4[COMRAM] PTR FTN()void 
  5069 ;;		 -> EUSART1_DefaultErrorHandler(1), 
  5070 ;; Auto vars:     Size  Location     Type
  5071 ;;		None
  5072 ;; Return value:  Size  Location     Type
  5073 ;;                  1    wreg      void 
  5074 ;; Registers used:
  5075 ;;		wreg, status,2, status,0
  5076 ;; Tracked objects:
  5077 ;;		On entry : 0/0
  5078 ;;		On exit  : 0/0
  5079 ;;		Unchanged: 0/0
  5080 ;; Data sizes:     COMRAM   BANK0   BANK1   BANK2   BANK3   BANK4   BANK5   BANK6   BANK7
  5081 ;;      Params:         2       0       0       0       0       0       0       0       0
  5082 ;;      Locals:         0       0       0       0       0       0       0       0       0
  5083 ;;      Temps:          0       0       0       0       0       0       0       0       0
  5084 ;;      Totals:         2       0       0       0       0       0       0       0       0
  5085 ;;Total ram usage:        2 bytes
  5086 ;; Hardware stack levels used: 1
  5087 ;; Hardware stack levels required when called: 4
  5088 ;; This function calls:
  5089 ;;		Nothing
  5090 ;; This function is called by:
  5091 ;;		_EUSART1_Initialize
  5092 ;; This function uses a non-reentrant model
  5093 ;;
  5094                           
  5095                           	psect	text31
  5096  0021B8                     __ptext31:
  5097                           	callstack 0
  5098  0021B8                     _EUSART1_SetErrorHandler:
  5099                           	callstack 24
  5100  0021B8                     
  5101                           ;mcc_generated_files/eusart1.c: 183:     EUSART1_ErrorHandler = interruptHandler;
  5102  0021B8  C005  F08E         	movff	EUSART1_SetErrorHandler@interruptHandler,_EUSART1_ErrorHandler
  5103  0021BC  C006  F08F         	movff	EUSART1_SetErrorHandler@interruptHandler+1,_EUSART1_ErrorHandler+1
  5104  0021C0  0012               	return		;funcret
  5105  0021C2                     __end_of_EUSART1_SetErrorHandler:
  5106                           	callstack 0
  5107                           
  5108 ;; *************** function _CCP2_Initialize *****************
  5109 ;; Defined at:
  5110 ;;		line 49 in file "mcc_generated_files/ccp2.c"
  5111 ;; Parameters:    Size  Location     Type
  5112 ;;		None
  5113 ;; Auto vars:     Size  Location     Type
  5114 ;;		None
  5115 ;; Return value:  Size  Location     Type
  5116 ;;                  1    wreg      void 
  5117 ;; Registers used:
  5118 ;;		wreg, status,2
  5119 ;; Tracked objects:
  5120 ;;		On entry : 0/0
  5121 ;;		On exit  : 0/0
  5122 ;;		Unchanged: 0/0
  5123 ;; Data sizes:     COMRAM   BANK0   BANK1   BANK2   BANK3   BANK4   BANK5   BANK6   BANK7
  5124 ;;      Params:         0       0       0       0       0       0       0       0       0
  5125 ;;      Locals:         0       0       0       0       0       0       0       0       0
  5126 ;;      Temps:          0       0       0       0       0       0       0       0       0
  5127 ;;      Totals:         0       0       0       0       0       0       0       0       0
  5128 ;;Total ram usage:        0 bytes
  5129 ;; Hardware stack levels used: 1
  5130 ;; Hardware stack levels required when called: 4
  5131 ;; This function calls:
  5132 ;;		Nothing
  5133 ;; This function is called by:
  5134 ;;		_SYSTEM_Initialize
  5135 ;; This function uses a non-reentrant model
  5136 ;;
  5137                           
  5138                           	psect	text32
  5139  002180                     __ptext32:
  5140                           	callstack 0
  5141  002180                     _CCP2_Initialize:
  5142                           	callstack 25
  5143  002180                     
  5144                           ;mcc_generated_files/ccp2.c: 53:  CCP2CON = 0x00;
  5145  002180  0E00               	movlw	0
  5146  002182  6E97               	movwf	151,c	;volatile
  5147                           
  5148                           ;mcc_generated_files/ccp2.c: 56:  CCPR2L = 0x00;
  5149  002184  0E00               	movlw	0
  5150  002186  6E90               	movwf	144,c	;volatile
  5151                           
  5152                           ;mcc_generated_files/ccp2.c: 59:  CCPR2H = 0x00;
  5153  002188  0E00               	movlw	0
  5154  00218A  6E91               	movwf	145,c	;volatile
  5155  00218C  0012               	return		;funcret
  5156  00218E                     __end_of_CCP2_Initialize:
  5157                           	callstack 0
  5158                           
  5159 ;; *************** function _ADC_Initialize *****************
  5160 ;; Defined at:
  5161 ;;		line 62 in file "mcc_generated_files/adc.c"
  5162 ;; Parameters:    Size  Location     Type
  5163 ;;		None
  5164 ;; Auto vars:     Size  Location     Type
  5165 ;;		None
  5166 ;; Return value:  Size  Location     Type
  5167 ;;                  1    wreg      void 
  5168 ;; Registers used:
  5169 ;;		wreg, status,2
  5170 ;; Tracked objects:
  5171 ;;		On entry : 0/0
  5172 ;;		On exit  : 0/0
  5173 ;;		Unchanged: 0/0
  5174 ;; Data sizes:     COMRAM   BANK0   BANK1   BANK2   BANK3   BANK4   BANK5   BANK6   BANK7
  5175 ;;      Params:         0       0       0       0       0       0       0       0       0
  5176 ;;      Locals:         0       0       0       0       0       0       0       0       0
  5177 ;;      Temps:          0       0       0       0       0       0       0       0       0
  5178 ;;      Totals:         0       0       0       0       0       0       0       0       0
  5179 ;;Total ram usage:        0 bytes
  5180 ;; Hardware stack levels used: 1
  5181 ;; Hardware stack levels required when called: 4
  5182 ;; This function calls:
  5183 ;;		Nothing
  5184 ;; This function is called by:
  5185 ;;		_SYSTEM_Initialize
  5186 ;; This function uses a non-reentrant model
  5187 ;;
  5188                           
  5189                           	psect	text33
  5190  002156                     __ptext33:
  5191                           	callstack 0
  5192  002156                     _ADC_Initialize:
  5193                           	callstack 25
  5194  002156                     
  5195                           ;mcc_generated_files/adc.c: 67:     ADCON1 = 0x00;
  5196  002156  0E00               	movlw	0
  5197  002158  6EC1               	movwf	193,c	;volatile
  5198                           
  5199                           ;mcc_generated_files/adc.c: 70:     ADCON2 = 0x87;
  5200  00215A  0E87               	movlw	135
  5201  00215C  6EC0               	movwf	192,c	;volatile
  5202                           
  5203                           ;mcc_generated_files/adc.c: 73:     ADRESL = 0x00;
  5204  00215E  0E00               	movlw	0
  5205  002160  6EC3               	movwf	195,c	;volatile
  5206                           
  5207                           ;mcc_generated_files/adc.c: 76:     ADRESH = 0x00;
  5208  002162  0E00               	movlw	0
  5209  002164  6EC4               	movwf	196,c	;volatile
  5210                           
  5211                           ;mcc_generated_files/adc.c: 79:     ADCON0 = 0x01;
  5212  002166  0E01               	movlw	1
  5213  002168  6EC2               	movwf	194,c	;volatile
  5214  00216A  0012               	return		;funcret
  5215  00216C                     __end_of_ADC_Initialize:
  5216                           	callstack 0
  5217                           
  5218 ;; *************** function _INTERRUPT_InterruptManager *****************
  5219 ;; Defined at:
  5220 ;;		line 58 in file "mcc_generated_files/interrupt_manager.c"
  5221 ;; Parameters:    Size  Location     Type
  5222 ;;		None
  5223 ;; Auto vars:     Size  Location     Type
  5224 ;;		None
  5225 ;; Return value:  Size  Location     Type
  5226 ;;                  1    wreg      void 
  5227 ;; Registers used:
  5228 ;;		wreg, status,2, status,0, pclath, tosl, cstack
  5229 ;; Tracked objects:
  5230 ;;		On entry : 0/0
  5231 ;;		On exit  : 0/0
  5232 ;;		Unchanged: 0/0
  5233 ;; Data sizes:     COMRAM   BANK0   BANK1   BANK2   BANK3   BANK4   BANK5   BANK6   BANK7
  5234 ;;      Params:         0       0       0       0       0       0       0       0       0
  5235 ;;      Locals:         0       0       0       0       0       0       0       0       0
  5236 ;;      Temps:          2       0       0       0       0       0       0       0       0
  5237 ;;      Totals:         2       0       0       0       0       0       0       0       0
  5238 ;;Total ram usage:        2 bytes
  5239 ;; Hardware stack levels used: 1
  5240 ;; Hardware stack levels required when called: 3
  5241 ;; This function calls:
  5242 ;;		_TMR1_ISR
  5243 ;; This function is called by:
  5244 ;;		Interrupt level 2
  5245 ;; This function uses a non-reentrant model
  5246 ;;
  5247                           
  5248                           	psect	intcode
  5249  000008                     __pintcode:
  5250                           	callstack 0
  5251  000008                     _INTERRUPT_InterruptManager:
  5252                           	callstack 23
  5253                           
  5254                           ;incstack = 0
  5255  000008  825B               	bsf	int$flags,1,c	;set compiler interrupt flag (level 2)
  5256  00000A  CFFA F003          	movff	pclath,??_INTERRUPT_InterruptManager
  5257  00000E  CFFB F004          	movff	pclatu,??_INTERRUPT_InterruptManager+1
  5258  000012                     
  5259                           ;mcc_generated_files/interrupt_manager.c: 61:     if(INTCONbits.PEIE == 1)
  5260  000012  ACF2               	btfss	242,6,c	;volatile
  5261  000014  EF0E  F000         	goto	i2u262_41
  5262  000018  EF10  F000         	goto	i2u262_40
  5263  00001C                     i2u262_41:
  5264  00001C  EF20  F000         	goto	i2l420
  5265  000020                     i2u262_40:
  5266  000020                     
  5267                           ;mcc_generated_files/interrupt_manager.c: 62:     {;mcc_generated_files/interrupt_manage
      +                          r.c: 63:         if(PIE1bits.TMR1IE == 1 && PIR1bits.TMR1IF == 1)
  5268  000020  A09D               	btfss	157,0,c	;volatile
  5269  000022  EF15  F000         	goto	i2u263_41
  5270  000026  EF17  F000         	goto	i2u263_40
  5271  00002A                     i2u263_41:
  5272  00002A  EF20  F000         	goto	i2l420
  5273  00002E                     i2u263_40:
  5274  00002E  A09E               	btfss	158,0,c	;volatile
  5275  000030  EF1C  F000         	goto	i2u264_41
  5276  000034  EF1E  F000         	goto	i2u264_40
  5277  000038                     i2u264_41:
  5278  000038  EF20  F000         	goto	i2l420
  5279  00003C                     i2u264_40:
  5280  00003C                     
  5281                           ;mcc_generated_files/interrupt_manager.c: 64:         {;mcc_generated_files/interrupt_ma
      +                          nager.c: 65:             TMR1_ISR();
  5282  00003C  ECE2  F00F         	call	_TMR1_ISR	;wreg free
  5283  000040                     i2l420:
  5284  000040  C004  FFFB         	movff	??_INTERRUPT_InterruptManager+1,pclatu
  5285  000044  C003  FFFA         	movff	??_INTERRUPT_InterruptManager,pclath
  5286  000048  925B               	bcf	int$flags,1,c	;clear compiler interrupt flag (level 2)
  5287  00004A  0011               	retfie		f
  5288  00004C                     __end_of_INTERRUPT_InterruptManager:
  5289                           	callstack 0
  5290                           
  5291 ;; *************** function _TMR1_ISR *****************
  5292 ;; Defined at:
  5293 ;;		line 160 in file "mcc_generated_files/tmr1.c"
  5294 ;; Parameters:    Size  Location     Type
  5295 ;;		None
  5296 ;; Auto vars:     Size  Location     Type
  5297 ;;		None
  5298 ;; Return value:  Size  Location     Type
  5299 ;;                  1    wreg      void 
  5300 ;; Registers used:
  5301 ;;		wreg, status,2, status,0, pclath, tosl, cstack
  5302 ;; Tracked objects:
  5303 ;;		On entry : 0/0
  5304 ;;		On exit  : 0/0
  5305 ;;		Unchanged: 0/0
  5306 ;; Data sizes:     COMRAM   BANK0   BANK1   BANK2   BANK3   BANK4   BANK5   BANK6   BANK7
  5307 ;;      Params:         0       0       0       0       0       0       0       0       0
  5308 ;;      Locals:         0       0       0       0       0       0       0       0       0
  5309 ;;      Temps:          0       0       0       0       0       0       0       0       0
  5310 ;;      Totals:         0       0       0       0       0       0       0       0       0
  5311 ;;Total ram usage:        0 bytes
  5312 ;; Hardware stack levels used: 1
  5313 ;; Hardware stack levels required when called: 2
  5314 ;; This function calls:
  5315 ;;		_TMR1_CallBack
  5316 ;;		_TMR1_WriteTimer
  5317 ;; This function is called by:
  5318 ;;		_INTERRUPT_InterruptManager
  5319 ;; This function uses a non-reentrant model
  5320 ;;
  5321                           
  5322                           	psect	text35
  5323  001FC4                     __ptext35:
  5324                           	callstack 0
  5325  001FC4                     _TMR1_ISR:
  5326                           	callstack 23
  5327  001FC4                     
  5328                           ;mcc_generated_files/tmr1.c: 162:     static volatile unsigned int CountCallBack = 0;;mc
      +                          c_generated_files/tmr1.c: 165:     PIR1bits.TMR1IF = 0;
  5329  001FC4  909E               	bcf	158,0,c	;volatile
  5330  001FC6                     
  5331                           ;mcc_generated_files/tmr1.c: 166:     TMR1_WriteTimer(timer1ReloadVal);
  5332  001FC6  C04F  F001         	movff	_timer1ReloadVal,TMR1_WriteTimer@timerVal	;volatile
  5333  001FCA  C050  F002         	movff	_timer1ReloadVal+1,TMR1_WriteTimer@timerVal+1	;volatile
  5334  001FCE  EC29  F010         	call	_TMR1_WriteTimer	;wreg free
  5335  001FD2                     
  5336                           ;mcc_generated_files/tmr1.c: 169:     if (++CountCallBack >= 1000)
  5337  001FD2  4A4B               	infsnz	TMR1_ISR@CountCallBack^0,f,c	;volatile
  5338  001FD4  2A4C               	incf	(TMR1_ISR@CountCallBack+1)^0,f,c	;volatile
  5339  001FD6  0EE8               	movlw	232
  5340  001FD8  5C4B               	subwf	TMR1_ISR@CountCallBack^0,w,c	;volatile
  5341  001FDA  0E03               	movlw	3
  5342  001FDC  584C               	subwfb	(TMR1_ISR@CountCallBack+1)^0,w,c	;volatile
  5343  001FDE  A0D8               	btfss	status,0,c
  5344  001FE0  EFF4  F00F         	goto	i2u256_41
  5345  001FE4  EFF6  F00F         	goto	i2u256_40
  5346  001FE8                     i2u256_41:
  5347  001FE8  EFFC  F00F         	goto	i2l482
  5348  001FEC                     i2u256_40:
  5349  001FEC                     
  5350                           ;mcc_generated_files/tmr1.c: 170:     {;mcc_generated_files/tmr1.c: 172:         TMR1_Ca
      +                          llBack();
  5351  001FEC  ECF6  F00E         	call	_TMR1_CallBack	;wreg free
  5352  001FF0                     
  5353                           ;mcc_generated_files/tmr1.c: 175:         CountCallBack = 0;
  5354  001FF0  0E00               	movlw	0
  5355  001FF2  6E4C               	movwf	(TMR1_ISR@CountCallBack+1)^0,c	;volatile
  5356  001FF4  0E00               	movlw	0
  5357  001FF6  6E4B               	movwf	TMR1_ISR@CountCallBack^0,c	;volatile
  5358  001FF8                     i2l482:
  5359  001FF8  0012               	return		;funcret
  5360  001FFA                     __end_of_TMR1_ISR:
  5361                           	callstack 0
  5362                           
  5363 ;; *************** function _TMR1_WriteTimer *****************
  5364 ;; Defined at:
  5365 ;;		line 123 in file "mcc_generated_files/tmr1.c"
  5366 ;; Parameters:    Size  Location     Type
  5367 ;;  timerVal        2    0[COMRAM] unsigned short 
  5368 ;; Auto vars:     Size  Location     Type
  5369 ;;		None
  5370 ;; Return value:  Size  Location     Type
  5371 ;;                  1    wreg      void 
  5372 ;; Registers used:
  5373 ;;		wreg, status,2
  5374 ;; Tracked objects:
  5375 ;;		On entry : 0/0
  5376 ;;		On exit  : 0/0
  5377 ;;		Unchanged: 0/0
  5378 ;; Data sizes:     COMRAM   BANK0   BANK1   BANK2   BANK3   BANK4   BANK5   BANK6   BANK7
  5379 ;;      Params:         2       0       0       0       0       0       0       0       0
  5380 ;;      Locals:         0       0       0       0       0       0       0       0       0
  5381 ;;      Temps:          0       0       0       0       0       0       0       0       0
  5382 ;;      Totals:         2       0       0       0       0       0       0       0       0
  5383 ;;Total ram usage:        2 bytes
  5384 ;; Hardware stack levels used: 1
  5385 ;; This function calls:
  5386 ;;		Nothing
  5387 ;; This function is called by:
  5388 ;;		_TMR1_ISR
  5389 ;;		_TMR1_Reload
  5390 ;; This function uses a non-reentrant model
  5391 ;;
  5392                           
  5393                           	psect	text36
  5394  002052                     __ptext36:
  5395                           	callstack 0
  5396  002052                     _TMR1_WriteTimer:
  5397                           	callstack 24
  5398  002052                     
  5399                           ;mcc_generated_files/tmr1.c: 123: void TMR1_WriteTimer(uint16_t timerVal);mcc_generated_
      +                          files/tmr1.c: 124: {;mcc_generated_files/tmr1.c: 125:     if (T1CONbits.T1SYNC == 1)
  5400  002052  A4CD               	btfss	205,2,c	;volatile
  5401  002054  EF2E  F010         	goto	i2u240_41
  5402  002058  EF30  F010         	goto	i2u240_40
  5403  00205C                     i2u240_41:
  5404  00205C  EF38  F010         	goto	i2l2858
  5405  002060                     i2u240_40:
  5406  002060                     
  5407                           ;mcc_generated_files/tmr1.c: 126:     {;mcc_generated_files/tmr1.c: 128:         T1CONbi
      +                          ts.TMR1ON = 0;
  5408  002060  90CD               	bcf	205,0,c	;volatile
  5409  002062                     
  5410                           ;mcc_generated_files/tmr1.c: 131:         TMR1H = (uint8_t)(timerVal >> 8);
  5411  002062  5002               	movf	(TMR1_WriteTimer@timerVal+1)^0,w,c
  5412  002064  6ECF               	movwf	207,c	;volatile
  5413  002066                     
  5414                           ;mcc_generated_files/tmr1.c: 132:         TMR1L = (uint8_t)timerVal;
  5415  002066  C001  FFCE         	movff	TMR1_WriteTimer@timerVal,4046	;volatile
  5416  00206A                     
  5417                           ;mcc_generated_files/tmr1.c: 135:         T1CONbits.TMR1ON =1;
  5418  00206A  80CD               	bsf	205,0,c	;volatile
  5419                           
  5420                           ;mcc_generated_files/tmr1.c: 136:     }
  5421  00206C  EF3C  F010         	goto	i2l467
  5422  002070                     i2l2858:
  5423                           
  5424                           ;mcc_generated_files/tmr1.c: 138:     {;mcc_generated_files/tmr1.c: 140:         TMR1H =
      +                           (uint8_t)(timerVal >> 8);
  5425  002070  5002               	movf	(TMR1_WriteTimer@timerVal+1)^0,w,c
  5426  002072  6ECF               	movwf	207,c	;volatile
  5427  002074                     
  5428                           ;mcc_generated_files/tmr1.c: 141:         TMR1L = (uint8_t)timerVal;
  5429  002074  C001  FFCE         	movff	TMR1_WriteTimer@timerVal,4046	;volatile
  5430  002078                     i2l467:
  5431  002078  0012               	return		;funcret
  5432  00207A                     __end_of_TMR1_WriteTimer:
  5433                           	callstack 0
  5434                           
  5435 ;; *************** function _TMR1_CallBack *****************
  5436 ;; Defined at:
  5437 ;;		line 179 in file "mcc_generated_files/tmr1.c"
  5438 ;; Parameters:    Size  Location     Type
  5439 ;;		None
  5440 ;; Auto vars:     Size  Location     Type
  5441 ;;		None
  5442 ;; Return value:  Size  Location     Type
  5443 ;;                  1    wreg      void 
  5444 ;; Registers used:
  5445 ;;		wreg, status,2, status,0, pclath, tosl, cstack
  5446 ;; Tracked objects:
  5447 ;;		On entry : 0/0
  5448 ;;		On exit  : 0/0
  5449 ;;		Unchanged: 0/0
  5450 ;; Data sizes:     COMRAM   BANK0   BANK1   BANK2   BANK3   BANK4   BANK5   BANK6   BANK7
  5451 ;;      Params:         0       0       0       0       0       0       0       0       0
  5452 ;;      Locals:         0       0       0       0       0       0       0       0       0
  5453 ;;      Temps:          0       0       0       0       0       0       0       0       0
  5454 ;;      Totals:         0       0       0       0       0       0       0       0       0
  5455 ;;Total ram usage:        0 bytes
  5456 ;; Hardware stack levels used: 1
  5457 ;; Hardware stack levels required when called: 1
  5458 ;; This function calls:
  5459 ;;		Absolute function
  5460 ;;		_TMR1_DefaultInterruptHandler
  5461 ;; This function is called by:
  5462 ;;		_TMR1_ISR
  5463 ;; This function uses a non-reentrant model
  5464 ;;
  5465                           
  5466                           	psect	text37
  5467  001DEC                     __ptext37:
  5468                           	callstack 0
  5469  001DEC                     _TMR1_CallBack:
  5470                           	callstack 23
  5471  001DEC                     
  5472                           ;mcc_generated_files/tmr1.c: 182:     conteo = conteo + 1;
  5473  001DEC  0E01               	movlw	1
  5474  001DEE  0100               	movlb	0	; () banked
  5475  001DF0  2576               	addwf	_conteo& (0+255),w,b
  5476  001DF2  6F76               	movwf	_conteo& (0+255),b
  5477  001DF4  0E00               	movlw	0
  5478  001DF6  2177               	addwfc	(_conteo+1)& (0+255),w,b
  5479  001DF8  6F77               	movwf	(_conteo+1)& (0+255),b
  5480  001DFA  0E00               	movlw	0
  5481  001DFC  2178               	addwfc	(_conteo+2)& (0+255),w,b
  5482  001DFE  6F78               	movwf	(_conteo+2)& (0+255),b
  5483  001E00  0E00               	movlw	0
  5484  001E02  2179               	addwfc	(_conteo+3)& (0+255),w,b
  5485  001E04  6F79               	movwf	(_conteo+3)& (0+255),b
  5486                           
  5487                           ;mcc_generated_files/tmr1.c: 183:     if(TMR1_InterruptHandler)
  5488  001E06  504D               	movf	_TMR1_InterruptHandler^0,w,c
  5489  001E08  104E               	iorwf	(_TMR1_InterruptHandler+1)^0,w,c
  5490  001E0A  B4D8               	btfsc	status,2,c
  5491  001E0C  EF0A  F00F         	goto	i2u241_41
  5492  001E10  EF0C  F00F         	goto	i2u241_40
  5493  001E14                     i2u241_41:
  5494  001E14  EF19  F00F         	goto	i2l486
  5495  001E18                     i2u241_40:
  5496  001E18                     
  5497                           ; BSR set to: 0
  5498                           ;mcc_generated_files/tmr1.c: 184:     {;mcc_generated_files/tmr1.c: 185:         TMR1_In
      +                          terruptHandler();
  5499  001E18  D802               	call	i2u242_48
  5500  001E1A  EF19  F00F         	goto	i2u242_49
  5501  001E1E                     i2u242_48:
  5502  001E1E  0005               	push	
  5503  001E20  6EFA               	movwf	pclath,c
  5504  001E22  504D               	movf	_TMR1_InterruptHandler^0,w,c
  5505  001E24  6EFD               	movwf	tosl,c
  5506  001E26  504E               	movf	(_TMR1_InterruptHandler+1)^0,w,c
  5507  001E28  6EFE               	movwf	tosh,c
  5508  001E2A  50F8               	movf	tblptru,w,c
  5509  001E2C  6EFF               	movwf	tosu,c
  5510  001E2E  50FA               	movf	pclath,w,c
  5511  001E30  0012               	return		;indir
  5512  001E32                     i2u242_49:
  5513  001E32                     i2l486:
  5514  001E32  0012               	return		;funcret
  5515  001E34                     __end_of_TMR1_CallBack:
  5516                           	callstack 0
  5517                           
  5518 ;; *************** function _TMR1_DefaultInterruptHandler *****************
  5519 ;; Defined at:
  5520 ;;		line 193 in file "mcc_generated_files/tmr1.c"
  5521 ;; Parameters:    Size  Location     Type
  5522 ;;		None
  5523 ;; Auto vars:     Size  Location     Type
  5524 ;;		None
  5525 ;; Return value:  Size  Location     Type
  5526 ;;                  1    wreg      void 
  5527 ;; Registers used:
  5528 ;;		None
  5529 ;; Tracked objects:
  5530 ;;		On entry : 0/0
  5531 ;;		On exit  : 0/0
  5532 ;;		Unchanged: 0/0
  5533 ;; Data sizes:     COMRAM   BANK0   BANK1   BANK2   BANK3   BANK4   BANK5   BANK6   BANK7
  5534 ;;      Params:         0       0       0       0       0       0       0       0       0
  5535 ;;      Locals:         0       0       0       0       0       0       0       0       0
  5536 ;;      Temps:          0       0       0       0       0       0       0       0       0
  5537 ;;      Totals:         0       0       0       0       0       0       0       0       0
  5538 ;;Total ram usage:        0 bytes
  5539 ;; Hardware stack levels used: 1
  5540 ;; This function calls:
  5541 ;;		Nothing
  5542 ;; This function is called by:
  5543 ;;		_TMR1_Initialize
  5544 ;;		_TMR1_CallBack
  5545 ;; This function uses a non-reentrant model
  5546 ;;
  5547                           
  5548                           	psect	text38
  5549  0021CE                     __ptext38:
  5550                           	callstack 0
  5551  0021CE                     _TMR1_DefaultInterruptHandler:
  5552                           	callstack 23
  5553  0021CE  0012               	return		;funcret
  5554  0021D0                     __end_of_TMR1_DefaultInterruptHandler:
  5555                           	callstack 0
  5556                           
  5557                           	psect	text39
  5558  000000                     __ptext39:
  5559                           	callstack 0
  5560  000000                     
  5561                           	psect	rparam
  5562  0000                     
  5563                           	psect	temp
  5564  00005B                     btemp:
  5565                           	callstack 0
  5566  00005B                     	ds	1
  5567  0000                     int$flags	set	btemp
  5568  0000                     wtemp8	set	btemp+1
  5569  0000                     ttemp5	set	btemp+1
  5570  0000                     ttemp6	set	btemp+4
  5571  0000                     ttemp7	set	btemp+8
  5572                           
  5573                           	psect	idloc
  5574                           
  5575                           ;Config register IDLOC0 @ 0x200000
  5576                           ;	unspecified, using default values
  5577  200000                     	org	2097152
  5578  200000  FF                 	db	255
  5579                           
  5580                           ;Config register IDLOC1 @ 0x200001
  5581                           ;	unspecified, using default values
  5582  200001                     	org	2097153
  5583  200001  FF                 	db	255
  5584                           
  5585                           ;Config register IDLOC2 @ 0x200002
  5586                           ;	unspecified, using default values
  5587  200002                     	org	2097154
  5588  200002  FF                 	db	255
  5589                           
  5590                           ;Config register IDLOC3 @ 0x200003
  5591                           ;	unspecified, using default values
  5592  200003                     	org	2097155
  5593  200003  FF                 	db	255
  5594                           
  5595                           ;Config register IDLOC4 @ 0x200004
  5596                           ;	unspecified, using default values
  5597  200004                     	org	2097156
  5598  200004  FF                 	db	255
  5599                           
  5600                           ;Config register IDLOC5 @ 0x200005
  5601                           ;	unspecified, using default values
  5602  200005                     	org	2097157
  5603  200005  FF                 	db	255
  5604                           
  5605                           ;Config register IDLOC6 @ 0x200006
  5606                           ;	unspecified, using default values
  5607  200006                     	org	2097158
  5608  200006  FF                 	db	255
  5609                           
  5610                           ;Config register IDLOC7 @ 0x200007
  5611                           ;	unspecified, using default values
  5612  200007                     	org	2097159
  5613  200007  FF                 	db	255
  5614                           
  5615                           	psect	config
  5616                           
  5617                           ;Config register CONFIG1L @ 0x300000
  5618                           ;	PLL Selection
  5619                           ;	PLLSEL = PLL3X, 3x clock multiplier
  5620                           ;	PLL Enable Configuration bit
  5621                           ;	CFGPLLEN = ON, PLL Enabled
  5622                           ;	CPU System Clock Postscaler
  5623                           ;	CPUDIV = NOCLKDIV, CPU uses system clock (no divide)
  5624                           ;	Low Speed USB mode with 48 MHz system clock
  5625                           ;	LS48MHZ = SYS48X8, System clock at 48 MHz, USB clock divider is set to 8
  5626  300000                     	org	3145728
  5627  300000  23                 	db	35
  5628                           
  5629                           ;Config register CONFIG1H @ 0x300001
  5630                           ;	Oscillator Selection
  5631                           ;	FOSC = HSH, HS oscillator, high power 16MHz to 25MHz
  5632                           ;	Primary Oscillator Shutdown
  5633                           ;	PCLKEN = ON, Primary oscillator enabled
  5634                           ;	Fail-Safe Clock Monitor
  5635                           ;	FCMEN = OFF, Fail-Safe Clock Monitor disabled
  5636                           ;	Internal/External Oscillator Switchover
  5637                           ;	IESO = OFF, Oscillator Switchover mode disabled
  5638  300001                     	org	3145729
  5639  300001  22                 	db	34
  5640                           
  5641                           ;Config register CONFIG2L @ 0x300002
  5642                           ;	Power-up Timer Enable
  5643                           ;	nPWRTEN = ON, Power up timer enabled
  5644                           ;	Brown-out Reset Enable
  5645                           ;	BOREN = SBORDIS, BOR enabled in hardware (SBOREN is ignored)
  5646                           ;	Brown-out Reset Voltage
  5647                           ;	BORV = 190, BOR set to 1.9V nominal
  5648                           ;	Low-Power Brown-out Reset
  5649                           ;	nLPBOR = OFF, Low-Power Brown-out Reset disabled
  5650  300002                     	org	3145730
  5651  300002  5E                 	db	94
  5652                           
  5653                           ;Config register CONFIG2H @ 0x300003
  5654                           ;	Watchdog Timer Enable bits
  5655                           ;	WDTEN = OFF, WDT disabled in hardware (SWDTEN ignored)
  5656                           ;	Watchdog Timer Postscaler
  5657                           ;	WDTPS = 32768, 1:32768
  5658  300003                     	org	3145731
  5659  300003  3C                 	db	60
  5660                           
  5661                           ; Padding undefined space
  5662  300004                     	org	3145732
  5663  300004  FF                 	db	255
  5664                           
  5665                           ;Config register CONFIG3H @ 0x300005
  5666                           ;	CCP2 MUX bit
  5667                           ;	CCP2MX = RC1, CCP2 input/output is multiplexed with RC1
  5668                           ;	PORTB A/D Enable bit
  5669                           ;	PBADEN = OFF, PORTB<5:0> pins are configured as digital I/O on Reset
  5670                           ;	Timer3 Clock Input MUX bit
  5671                           ;	T3CMX = RC0, T3CKI function is on RC0
  5672                           ;	SDO Output MUX bit
  5673                           ;	SDOMX = RB3, SDO function is on RB3
  5674                           ;	Master Clear Reset Pin Enable
  5675                           ;	MCLRE = ON, MCLR pin enabled; RE3 input disabled
  5676  300005                     	org	3145733
  5677  300005  D1                 	db	209
  5678                           
  5679                           ;Config register CONFIG4L @ 0x300006
  5680                           ;	Stack Full/Underflow Reset
  5681                           ;	STVREN = ON, Stack full/underflow will cause Reset
  5682                           ;	Single-Supply ICSP Enable bit
  5683                           ;	LVP = ON, Single-Supply ICSP enabled if MCLRE is also 1
  5684                           ;	Dedicated In-Circuit Debug/Programming Port Enable
  5685                           ;	ICPRT = OFF, ICPORT disabled
  5686                           ;	Extended Instruction Set Enable bit
  5687                           ;	XINST = OFF, Instruction set extension and Indexed Addressing mode disabled
  5688                           ;	Background Debugger Enable bit
  5689                           ;	DEBUG = OFF, Background debugger disabled, RB6 and RB7 configured as general purpose I
      +                          /O pins
  5690  300006                     	org	3145734
  5691  300006  85                 	db	133
  5692                           
  5693                           ; Padding undefined space
  5694  300007                     	org	3145735
  5695  300007  FF                 	db	255
  5696                           
  5697                           ;Config register CONFIG5L @ 0x300008
  5698                           ;	Block 0 Code Protect
  5699                           ;	CP0 = OFF, Block 0 is not code-protected
  5700                           ;	Block 1 Code Protect
  5701                           ;	CP1 = OFF, Block 1 is not code-protected
  5702                           ;	Block 2 Code Protect
  5703                           ;	CP2 = OFF, Block 2 is not code-protected
  5704                           ;	Block 3 Code Protect
  5705                           ;	CP3 = OFF, Block 3 is not code-protected
  5706  300008                     	org	3145736
  5707  300008  0F                 	db	15
  5708                           
  5709                           ;Config register CONFIG5H @ 0x300009
  5710                           ;	Boot Block Code Protect
  5711                           ;	CPB = OFF, Boot block is not code-protected
  5712                           ;	Data EEPROM Code Protect
  5713                           ;	CPD = OFF, Data EEPROM is not code-protected
  5714  300009                     	org	3145737
  5715  300009  C0                 	db	192
  5716                           
  5717                           ;Config register CONFIG6L @ 0x30000A
  5718                           ;	Block 0 Write Protect
  5719                           ;	WRT0 = OFF, Block 0 (0800-1FFFh) is not write-protected
  5720                           ;	Block 1 Write Protect
  5721                           ;	WRT1 = OFF, Block 1 (2000-3FFFh) is not write-protected
  5722                           ;	Block 2 Write Protect
  5723                           ;	WRT2 = OFF, Block 2 (04000-5FFFh) is not write-protected
  5724                           ;	Block 3 Write Protect
  5725                           ;	WRT3 = OFF, Block 3 (06000-7FFFh) is not write-protected
  5726  30000A                     	org	3145738
  5727  30000A  0F                 	db	15
  5728                           
  5729                           ;Config register CONFIG6H @ 0x30000B
  5730                           ;	Configuration Registers Write Protect
  5731                           ;	WRTC = OFF, Configuration registers (300000-3000FFh) are not write-protected
  5732                           ;	Boot Block Write Protect
  5733                           ;	WRTB = OFF, Boot block (0000-7FFh) is not write-protected
  5734                           ;	Data EEPROM Write Protect
  5735                           ;	WRTD = OFF, Data EEPROM is not write-protected
  5736  30000B                     	org	3145739
  5737  30000B  E0                 	db	224
  5738                           
  5739                           ;Config register CONFIG7L @ 0x30000C
  5740                           ;	Block 0 Table Read Protect
  5741                           ;	EBTR0 = OFF, Block 0 is not protected from table reads executed in other blocks
  5742                           ;	Block 1 Table Read Protect
  5743                           ;	EBTR1 = OFF, Block 1 is not protected from table reads executed in other blocks
  5744                           ;	Block 2 Table Read Protect
  5745                           ;	EBTR2 = OFF, Block 2 is not protected from table reads executed in other blocks
  5746                           ;	Block 3 Table Read Protect
  5747                           ;	EBTR3 = OFF, Block 3 is not protected from table reads executed in other blocks
  5748  30000C                     	org	3145740
  5749  30000C  0F                 	db	15
  5750                           
  5751                           ;Config register CONFIG7H @ 0x30000D
  5752                           ;	Boot Block Table Read Protect
  5753                           ;	EBTRB = OFF, Boot block is not protected from table reads executed in other blocks
  5754  30000D                     	org	3145741
  5755  30000D  40                 	db	64
  5756                           tosu	equ	0xFFF
  5757                           tosh	equ	0xFFE
  5758                           tosl	equ	0xFFD
  5759                           stkptr	equ	0xFFC
  5760                           pclatu	equ	0xFFB
  5761                           pclath	equ	0xFFA
  5762                           pcl	equ	0xFF9
  5763                           tblptru	equ	0xFF8
  5764                           tblptrh	equ	0xFF7
  5765                           tblptrl	equ	0xFF6
  5766                           tablat	equ	0xFF5
  5767                           prodh	equ	0xFF4
  5768                           prodl	equ	0xFF3
  5769                           indf0	equ	0xFEF
  5770                           postinc0	equ	0xFEE
  5771                           postdec0	equ	0xFED
  5772                           preinc0	equ	0xFEC
  5773                           plusw0	equ	0xFEB
  5774                           fsr0h	equ	0xFEA
  5775                           fsr0l	equ	0xFE9
  5776                           wreg	equ	0xFE8
  5777                           indf1	equ	0xFE7
  5778                           postinc1	equ	0xFE6
  5779                           postdec1	equ	0xFE5
  5780                           preinc1	equ	0xFE4
  5781                           plusw1	equ	0xFE3
  5782                           fsr1h	equ	0xFE2
  5783                           fsr1l	equ	0xFE1
  5784                           bsr	equ	0xFE0
  5785                           indf2	equ	0xFDF
  5786                           postinc2	equ	0xFDE
  5787                           postdec2	equ	0xFDD
  5788                           preinc2	equ	0xFDC
  5789                           plusw2	equ	0xFDB
  5790                           fsr2h	equ	0xFDA
  5791                           fsr2l	equ	0xFD9
  5792                           status	equ	0xFD8

Data Sizes:
    Strings     0
    Constant    14
    Data        12
    BSS         72
    Persistent  0
    Stack       0

Auto Spaces:
    Space          Size  Autos    Used
    COMRAM           94     70      90
    BANK0           160      4      68
    BANK1           256      0       0
    BANK2           256      0       0
    BANK3           256      0       0
    BANK4           256      0       0
    BANK5           256      0       0
    BANK6           256      0       0
    BANK7           256      0       0

Pointer List with Targets:

    ADC_InterruptHandler	PTR FTN()void  size(2) Largest target is 1
		 -> Absolute function(), 

    TMR1_SetInterruptHandler@InterruptHandler	PTR FTN()void  size(2) Largest target is 1
		 -> TMR1_DefaultInterruptHandler(), 

    TMR1_InterruptHandler	PTR FTN()void  size(2) Largest target is 1
		 -> Absolute function(), TMR1_DefaultInterruptHandler(), 

    nrf2401_direccion_TX_RX@direccion_	PTR const unsigned char  size(2) Largest target is 5
		 -> direccion_tx(CODE[5]), 

    EUSART1_SetErrorHandler@interruptHandler	PTR FTN()void  size(2) Largest target is 1
		 -> EUSART1_DefaultErrorHandler(), 

    EUSART1_ErrorHandler	PTR FTN()void  size(2) Largest target is 1
		 -> Absolute function(), EUSART1_DefaultErrorHandler(), 

    EUSART1_SetOverrunErrorHandler@interruptHandler	PTR FTN()void  size(2) Largest target is 1
		 -> EUSART1_DefaultOverrunErrorHandler(), 

    EUSART1_OverrunErrorHandler	PTR FTN()void  size(2) Largest target is 1
		 -> Absolute function(), EUSART1_DefaultOverrunErrorHandler(), 

    EUSART1_SetFramingErrorHandler@interruptHandler	PTR FTN()void  size(2) Largest target is 1
		 -> EUSART1_DefaultFramingErrorHandler(), 

    EUSART1_FramingErrorHandler	PTR FTN()void  size(2) Largest target is 1
		 -> Absolute function(), EUSART1_DefaultFramingErrorHandler(), 


Critical Paths under _main in COMRAM

    _main->_trip_protec_current
    _trip_protec_current->_get_corriente_AC
    _get_corriente_AC->___fldiv
    ___flsub->___fladd
    ___flmul->___xxtofl
    ___fldiv->___flsub
    _nrf2401_recibe->_spi_s_read
    _nrf2401_recibe->_spi_s_write
    _get_Status->_nrf2401_read
    _nrf2401_read->_spi_s_read
    _nrf2401_read->_spi_s_write
    _nrF2401_init_RX->_nrf2401_direccion_TX_RX
    _nrf2401_direccion_TX_RX->_spi_s_write
    _flush_TX_RX->_nrf2401_write
    _nrf2401_write->_spi_s_write
    _nrf2401_comando->_spi_s_write
    _TMR1_Initialize->_TMR1_SetInterruptHandler
    _EUSART1_Initialize->_EUSART1_SetErrorHandler
    _EUSART1_Initialize->_EUSART1_SetFramingErrorHandler
    _EUSART1_Initialize->_EUSART1_SetOverrunErrorHandler

Critical Paths under _INTERRUPT_InterruptManager in COMRAM

    _TMR1_ISR->_TMR1_WriteTimer

Critical Paths under _main in BANK0

    _main->_trip_protec_current

Critical Paths under _INTERRUPT_InterruptManager in BANK0

    None.

Critical Paths under _main in BANK1

    None.

Critical Paths under _INTERRUPT_InterruptManager in BANK1

    None.

Critical Paths under _main in BANK2

    None.

Critical Paths under _INTERRUPT_InterruptManager in BANK2

    None.

Critical Paths under _main in BANK3

    None.

Critical Paths under _INTERRUPT_InterruptManager in BANK3

    None.

Critical Paths under _main in BANK4

    None.

Critical Paths under _INTERRUPT_InterruptManager in BANK4

    None.

Critical Paths under _main in BANK5

    None.

Critical Paths under _INTERRUPT_InterruptManager in BANK5

    None.

Critical Paths under _main in BANK6

    None.

Critical Paths under _INTERRUPT_InterruptManager in BANK6

    None.

Critical Paths under _main in BANK7

    None.

Critical Paths under _INTERRUPT_InterruptManager in BANK7

    None.

Call Graph Tables:

 ---------------------------------------------------------------------------------
 (Depth) Function   	        Calls       Base Space   Used Autos Params    Refs
 ---------------------------------------------------------------------------------
 (0) _main                                                 2     2      0   27757
                                             68 COMRAM     2     2      0
                  _SYSTEM_Initialize
                    _nrF2401_init_RX
                   _nrf2401_haydatos
                     _nrf2401_recibe
                         _spi_s_init
                _trip_protec_current
 ---------------------------------------------------------------------------------
 (1) _trip_protec_current                                  8     8      0   23227
                                             64 COMRAM     4     4      0
                                              0 BANK0      4     4      0
                            ___fladd
                            ___fldiv
                             ___flge
                   _get_corriente_AC
 ---------------------------------------------------------------------------------
 (2) _get_corriente_AC                                    11     7      4   15304
                                             53 COMRAM    11     7      4
                  _ADC_GetConversion
                            ___fladd
                            ___fldiv
                             ___flge
                            ___flmul
                            ___flsub
                           ___xxtofl
 ---------------------------------------------------------------------------------
 (3) ___xxtofl                                            14    10      4     566
                                              4 COMRAM    14    10      4
 ---------------------------------------------------------------------------------
 (3) ___flsub                                              8     0      8    4007
                                             20 COMRAM     8     0      8
                            ___fladd
 ---------------------------------------------------------------------------------
 (4) ___fladd                                             16     8      8    3470
                                              4 COMRAM    16     8      8
 ---------------------------------------------------------------------------------
 (3) ___flmul                                             25    17      8    2513
                                             18 COMRAM    25    17      8
                           ___xxtofl (ARG)
 ---------------------------------------------------------------------------------
 (3) ___flge                                              12     4      8    2066
                                              4 COMRAM    12     4      8
 ---------------------------------------------------------------------------------
 (3) ___fldiv                                             25    17      8    2363
                                             28 COMRAM    25    17      8
                            ___fladd (ARG)
                            ___flsub (ARG)
 ---------------------------------------------------------------------------------
 (3) _ADC_GetConversion                                    5     3      2      31
                                              4 COMRAM     5     3      2
 ---------------------------------------------------------------------------------
 (1) _spi_s_init                                           0     0      0       0
 ---------------------------------------------------------------------------------
 (1) _nrf2401_recibe                                       1     1      0     105
                                              6 COMRAM     1     1      0
                         _spi_s_read
                        _spi_s_write
 ---------------------------------------------------------------------------------
 (1) _nrf2401_haydatos                                     0     0      0     120
                         _get_Status
 ---------------------------------------------------------------------------------
 (2) _get_Status                                           0     0      0     120
                       _nrf2401_read
 ---------------------------------------------------------------------------------
 (3) _nrf2401_read                                         2     2      0     120
                                              6 COMRAM     2     2      0
                         _spi_s_read
                        _spi_s_write
 ---------------------------------------------------------------------------------
 (2) _spi_s_read                                           2     2      0      45
                                              4 COMRAM     2     2      0
 ---------------------------------------------------------------------------------
 (1) _nrF2401_init_RX                                      1     1      0    3913
                                             12 COMRAM     1     1      0
                        _flush_TX_RX
            _nrf2401_direccion_TX_RX
                      _nrf2401_write
 ---------------------------------------------------------------------------------
 (2) _nrf2401_direccion_TX_RX                              6     3      3     765
                                              6 COMRAM     6     3      3
                        _spi_s_write
 ---------------------------------------------------------------------------------
 (2) _flush_TX_RX                                          0     0      0    1593
                    _nrf2401_comando
                      _nrf2401_write
 ---------------------------------------------------------------------------------
 (2) _nrf2401_write                                        2     1      1    1533
                                              6 COMRAM     2     1      1
                        _spi_s_write
 ---------------------------------------------------------------------------------
 (3) _nrf2401_comando                                      1     1      0      60
                                              6 COMRAM     1     1      0
                        _spi_s_write
 ---------------------------------------------------------------------------------
 (2) _spi_s_write                                          2     2      0      45
                                              4 COMRAM     2     2      0
 ---------------------------------------------------------------------------------
 (1) _SYSTEM_Initialize                                    0     0      0     392
                     _ADC_Initialize
                    _CCP2_Initialize
                 _EUSART1_Initialize
               _INTERRUPT_Initialize
              _OSCILLATOR_Initialize
             _PIN_MANAGER_Initialize
                    _TMR1_Initialize
 ---------------------------------------------------------------------------------
 (2) _TMR1_Initialize                                      0     0      0      98
           _TMR1_SetInterruptHandler
 ---------------------------------------------------------------------------------
 (3) _TMR1_SetInterruptHandler                             2     0      2      98
                                              4 COMRAM     2     0      2
 ---------------------------------------------------------------------------------
 (2) _PIN_MANAGER_Initialize                               0     0      0       0
 ---------------------------------------------------------------------------------
 (2) _OSCILLATOR_Initialize                                0     0      0       0
 ---------------------------------------------------------------------------------
 (2) _INTERRUPT_Initialize                                 0     0      0       0
 ---------------------------------------------------------------------------------
 (2) _EUSART1_Initialize                                   0     0      0     294
            _EUSART1_SetErrorHandler
     _EUSART1_SetFramingErrorHandler
     _EUSART1_SetOverrunErrorHandler
 ---------------------------------------------------------------------------------
 (3) _EUSART1_SetOverrunErrorHandler                       2     0      2      98
                                              4 COMRAM     2     0      2
 ---------------------------------------------------------------------------------
 (3) _EUSART1_SetFramingErrorHandler                       2     0      2      98
                                              4 COMRAM     2     0      2
 ---------------------------------------------------------------------------------
 (3) _EUSART1_SetErrorHandler                              2     0      2      98
                                              4 COMRAM     2     0      2
 ---------------------------------------------------------------------------------
 (2) _CCP2_Initialize                                      0     0      0       0
 ---------------------------------------------------------------------------------
 (2) _ADC_Initialize                                       0     0      0       0
 ---------------------------------------------------------------------------------
 Estimated maximum stack depth 4
 ---------------------------------------------------------------------------------
 (Depth) Function   	        Calls       Base Space   Used Autos Params    Refs
 ---------------------------------------------------------------------------------
 (5) _INTERRUPT_InterruptManager                           2     2      0     240
                                              2 COMRAM     2     2      0
                           _TMR1_ISR
 ---------------------------------------------------------------------------------
 (6) _TMR1_ISR                                             0     0      0     240
                      _TMR1_CallBack
                    _TMR1_WriteTimer
 ---------------------------------------------------------------------------------
 (7) _TMR1_WriteTimer                                      2     0      2     240
                                              0 COMRAM     2     0      2
 ---------------------------------------------------------------------------------
 (7) _TMR1_CallBack                                        0     0      0       0
                   Absolute function *
       _TMR1_DefaultInterruptHandler *
 ---------------------------------------------------------------------------------
 (8) _TMR1_DefaultInterruptHandler                         0     0      0       0
 ---------------------------------------------------------------------------------
 (8) Absolute function(Fake)                               0     0      0       0
 ---------------------------------------------------------------------------------
 Estimated maximum stack depth 8
 ---------------------------------------------------------------------------------

 Call Graph Graphs:

 _main (ROOT)
   _SYSTEM_Initialize
     _ADC_Initialize
     _CCP2_Initialize
     _EUSART1_Initialize
       _EUSART1_SetErrorHandler
       _EUSART1_SetFramingErrorHandler
       _EUSART1_SetOverrunErrorHandler
     _INTERRUPT_Initialize
     _OSCILLATOR_Initialize
     _PIN_MANAGER_Initialize
     _TMR1_Initialize
       _TMR1_SetInterruptHandler
   _nrF2401_init_RX
     _flush_TX_RX
       _nrf2401_comando
         _spi_s_write
       _nrf2401_write
         _spi_s_write
     _nrf2401_direccion_TX_RX
       _spi_s_write
     _nrf2401_write
   _nrf2401_haydatos
     _get_Status
       _nrf2401_read
         _spi_s_read
         _spi_s_write
   _nrf2401_recibe
     _spi_s_read
     _spi_s_write
   _spi_s_init
   _trip_protec_current
     ___fladd
     ___fldiv
       ___fladd (ARG)
       ___flsub (ARG)
         ___fladd
     ___flge
     _get_corriente_AC
       _ADC_GetConversion
       ___fladd
       ___fldiv
       ___flge
       ___flmul
         ___xxtofl (ARG)
       ___flsub
       ___xxtofl

 _INTERRUPT_InterruptManager (ROOT)
   _TMR1_ISR
     _TMR1_CallBack
       Absolute function(Fake) *
       _TMR1_DefaultInterruptHandler *
     _TMR1_WriteTimer

 Address spaces:
Name               Size   Autos  Total    Cost      Usage
BIGRAM             7FF      0       0      21        0.0%
EEDATA             100      0       0       0        0.0%
BITBANK7           100      0       0      19        0.0%
BANK7              100      0       0      20        0.0%
BITBANK6           100      0       0      17        0.0%
BANK6              100      0       0      18        0.0%
BITBANK5           100      0       0      15        0.0%
BANK5              100      0       0      16        0.0%
BITBANK4           100      0       0      13        0.0%
BANK4              100      0       0      14        0.0%
BITBANK3           100      0       0      11        0.0%
BANK3              100      0       0      12        0.0%
BITBANK2           100      0       0       9        0.0%
BANK2              100      0       0      10        0.0%
BITBANK1           100      0       0       7        0.0%
BANK1              100      0       0       8        0.0%
BITBANK0            A0      0       0       4        0.0%
BANK0               A0      4      44       5       42.5%
BITCOMRAM           5E      0       0       0        0.0%
COMRAM              5E     46      5A       1       95.7%
BITSFR_1             0      0       0     200        0.0%
SFR_1                0      0       0     200        0.0%
BITSFR               0      0       0     200        0.0%
SFR                  0      0       0     200        0.0%
STACK                0      0       0       2        0.0%
NULL                 0      0       0       0        0.0%
ABS                  0      0      9E       6        0.0%
DATA                 0      0      9E       3        0.0%
CODE                 0      0       0       0        0.0%


Microchip Technology PIC18 Macro Assembler V2.32 build 20210201212658 
Symbol Table                                                                                   Thu Dec 08 19:20:04 2022

                                             _I 0047                                    ___fldiv@aexp 0035  
                                  ___fldiv@bexp 0034                                               _i 0057  
                                             _j 0055                                               _k 0053  
                                             _l 0051                                    ___fldiv@sign 002D  
                                            l43 1F88                                              l94 21B6  
                                            l97 21AC                                              u10 1EE6  
                                            u11 1EE2                                              u20 1F02  
                                            u21 1EFE                                              u30 1DBC  
                                            u31 1DB8                                              u40 1DEA  
                                            u41 1DE6                                             l100 21C0  
                                           l130 208A                                             l133 2098  
                                           l206 1FA2                                             l127 20D4  
                                           l311 20B6                                             l160 2026  
                                           l209 1FC2                                             l172 218C  
                                           l260 1DEA                                             l413 21CC  
                                           l253 1F04                                             l191 216A  
                                           l263 210C                                             l247 2154  
                                           l256 1DAE                                             l273 1F42  
                                           l258 1DC2                                             l266 217E  
                                           l274 1F4A                                             l283 213E  
                                           l292 1DA2                                             l372 1640  
                                           l453 2050                                             l269 20F0  
                                           l365 19BA                                             l373 1640  
                                           l390 17E0                                             l382 1774  
                                           l383 1774                                             l289 2126  
                                           l377 16DA                                             l298 21C8  
                                           l378 16DA                                             l387 17DC  
                                           l388 17DC                                             l396 1D08  
                                           l760 1C2C                                             l489 21A2  
                                           l765 1C72                                 _timer1ReloadVal 004F  
                                           tosl 000FFD                                             wreg 000FE8  
                                    _TXSTA1bits 000FAC                                    ___flmul@aexp 0020  
                                  ___flmul@bexp 0025                                    ___flmul@sign 001F  
                                  ___flmul@temp 002A                                    ___flmul@prod 0026  
                               _nrF2401_init_RX 1D28                                            l1023 09FE  
                                          l1040 0B18                                            l1032 0CCE  
                                          l1024 09EC                                            l1113 10F8  
                                          l1025 09B2                                            l1210 1DD0  
                                          l1202 1DBC                                            l1050 0BD6  
                                          l1212 1DD2                                            l1204 1DC4  
                                          l1116 0F8A                                            l1109 0D94  
                                          l1214 1DD8                                            l1206 1DC8  
                                          l1126 10BA                                            l1118 1002  
                                          l1150 1A12                                            l1119 0FF0  
                                          l1216 1DDA                                            l1208 1DCA  
                                          l1049 0BE8                                            l1065 1EBE  
                                          l1153 1B6E                                            l1090 13B0  
                                          l1082 12B6                                            l1091 139E  
                                          l1180 1ED8                                            l3100 0914  
                                          l1164 1B06                                            l1077 1492  
                                          l1157 1AAA                                            l1190 1EF2  
                                          l1182 1EE6                                            l1174 1ECC  
                                          l3110 0928                                            l3102 0918  
                                          l1079 12F2                                            l1192 1F02  
                                          l1184 1EE8                                            l1176 1ED0  
                                          l1168 1EC0                                            l1088 1338  
                                          l3200 0B6C                                            l3120 093C  
                                          l3112 092C                                            l3104 091C  
                                          l1450 2178                                            l1186 1EEA  
                                          l1178 1ED2                                            l3202 0B7A  
                                          l3210 0B98                                            l3122 0940  
                                          l3114 0930                                            l3106 0920  
                                          l3130 0950                                            l2412 21AE  
                                          l1196 1DA6                                            l1444 216E  
                                          l1188 1EF0                                            l1460 20E6  
                                          l1452 20D8                                            l3300 11B6  
                                          l3204 0B82                                            l3212 0BA6  
                                          l3140 09C0                                            l3132 0954  
                                          l3124 0944                                            l3116 0934  
                                          l3108 0924                                            l3060 083C  
                                          l3052 0810                                            l2414 21A4  
                                          l1446 2170                                            l2430 20F6  
                                          l1462 20E8                                            l1454 20D8  
                                          l3310 11F8                                            l3302 11C6  
                                          l3222 0BF8                                            l3230 0C4E  
                                          l3214 0BAA                                            l3206 0B86  
                                          l3150 09EA                                            l3142 09CC  
                                          l3134 097E                                            l3126 0948  
                                          l3118 0938                                            l3070 0876  
                                          l3062 084C                                            l3054 081C  
                                          l2416 21B8                                            l1448 2176  
                                          l2432 2104                                            l1456 20DA  
                                          l3304 11DC                                            l3240 0CA0  
                                          l3232 0C5E                                            l3224 0C04  
                                          l3216 0BB8                                            l3208 0B96  
                                          l3160 0A40                                            l3152 0A0C  
                                          l3144 09D0                                            l3136 099A  
                                          l3128 094C                                            l3080 08A4  
                                          l3072 087C                                            l3064 085C  
                                          l3056 082A                                            l2434 2106  
                                          l1458 20E0                                            l3330 127A  
                                          l3322 1230                                            l3306 11EC  
                                          l3314 120C                                            l3410 0CFC  
                                          l3402 0CD0                                            l3250 0CBE  
                                          l3242 0CA6                                            l3234 0C6E  
                                          l3226 0C12                                            l3218 0BCE  
                                          l3170 0A7A                                            l3162 0A4E  
                                          l3154 0A1C                                            l3146 09DE  
                                          l3138 09AA                                            l3090 08D8  
                                          l3082 08A6                                            l3074 088E  
                                          l3066 085E                                            l3058 082C  
                                          l1820 21CA                                            l2436 219A  
                                          l2428 20F4                                            l3260 1FB0  
                                          l3340 12C0                                            l3332 1282  
                                          l3324 124A                                            l3316 121C  
                                          l3308 11F4                                            l3420 0D38  
                                          l3412 0D0C                                            l3404 0CDC  
                                          l3244 0CA8                                            l3236 0C8E  
                                          l3228 0C4C                                            l3180 0AE6  
                                          l3172 0A7C                                            l3164 0A5C  
                                          l3148 09E0                                            l3084 08B6  
                                          l3092 08E0                                            l3076 0890  
                                          l3068 0866                                            l1822 1FFA  
                                          l3254 1F8C                                            l3350 1318  
                                          l3342 12DE                                            l3334 1292  
                                          l3326 125A                                            l3318 121C  
                                          l3270 1116                                            l3502 1012  
                                          l3510 105A                                            l3430 0D6E  
                                          l3422 0D3E                                            l3414 0D1C  
                                          l3406 0CEA                                            l3246 0CAE  
                                          l3238 0C92                                            l3190 0B3E  
                                          l3182 0AE8                                            l3174 0A86  
                                          l3166 0A68                                            l3158 0A30  
                                          l3094 08F0                                            l3086 08C6  
                                          l3078 0896                                            l1824 2024  
                                          l2800 204C                                            l3256 1F9E  
                                          l3360 1356                                            l3352 131E  
                                          l3344 12E0                                            l3336 12A6  
                                          l3328 126A                                            l3272 1126  
                                          l3280 1150                                            l3264 10FA  
                                          l3520 10CE                                            l3512 1074  
                                          l3504 101E                                            l3432 0D7E  
                                          l3424 0D4C                                            l3416 0D22  
                                          l3408 0CEC                                            l3248 0CBC  
                                          l3184 0AF8                                            l3168 0A6C  
                                          l3176 0A8C                                            l3096 0902  
                                          l3088 08D6                                            l3600 1B5C  
                                          l1842 2156                                            l1826 207A  
                                          l2802 1F06                                            l3258 1FA0  
                                          l3370 13C0                                            l3362 135A  
                                          l3354 1328                                            l3346 12F0  
                                          l3338 12B4                                            l3290 117C  
                                          l3282 1160                                            l3274 1136  
                                          l3266 1106                                            l3522 10DC  
                                          l3514 1088                                            l3506 102C  
                                          l3450 0E00                                            l3442 0DC8  
                                          l3434 0D84                                            l3426 0D4E  
                                          l3418 0D32                                            l3194 0B52  
                                          l3178 0AB2                                            l3186 0B08  
                                          l3098 0910                                            l3602 1B5E  
                                          l3610 181E                                            l1828 2180  
                                          l2812 1F14                                            l2804 1F08  
                                          l3380 1422                                            l3372 13CC  
                                          l3364 1368                                            l3356 1336  
                                          l3348 1302                                            l3292 118C  
                                          l3284 1166                                            l3276 1146  
                                          l3268 1114                                            l3540 1B9E  
                                          l3524 10DE                                            l3516 10A2  
                                          l3508 1056                                            l3460 0E4A  
                                          l3452 0E18                                            l3444 0DD4  
                                          l3436 0DA4                                            l3428 0D5E  
                                          l3196 0B5C                                            l3188 0B2E  
                                          l3532 1E7A                                            l3620 1930  
                                          l3612 1864                                            l3700 1CAA  
                                          l2822 2128                                            l2814 1F30  
                                          l2806 1F10                                            l2910 1D8C  
                                          l1942 2140                                            l3390 1480  
                                          l3382 1438                                            l3374 13DA  
                                          l3366 1396                                            l3358 1348  
                                          l3294 119C                                            l3286 116C  
                                          l3278 1148                                            l3550 1C0C  
                                          l3542 1BAE                                            l3518 10BE  
                                          l3526 10E4                                            l3470 0EA0  
                                          l3462 0E5A                                            l3454 0E24  
                                          l3446 0DDE                                            l3438 0DB4  
                                          l3198 0B6A                                            l3534 1E8A  
                                          l3622 1940                                            l3614 18BC  
                                          l3606 17E2                                            l3630 1494  
                                          l3710 1CE0                                            l3702 1CAC  
                                          l2816 1F32                                            l2912 1DA0  
                                          l2904 1D2A                                            l3392 1486  
                                          l3384 1452                                            l3376 1404  
                                          l3296 11AC                                            l3288 117A  
                                          l3552 1C1A                                            l3544 1BDC  
                                          l3528 10E8                                            l3480 0F44  
                                          l3472 0EBC                                            l3464 0E66  
                                          l3456 0E30                                            l3448 0DF4  
                                          l3560 19BE                                            l3616 18EE  
                                          l3608 1810                                            l3624 1944  
                                          l3640 1582                                            l3632 14B0  
                                          l3712 1CF0                                            l3704 1CC2  
                                          l2818 1F44                                            l2906 1D2C  
                                          l1866 21C2                                            l1970 2110  
                                          l3394 1488                                            l3386 146E  
                                          l3378 1408                                            l3298 11AE  
                                          l3554 1C6A                                            l3546 1BEC  
                                          l3538 1B70                                            l3490 0F9A  
                                          l3482 0F52                                            l3474 0EC8  
                                          l3466 0E76                                            l3458 0E3E  
                                          l3562 19CE                                            l3626 1962  
                                          l3618 18FE                                            l3650 1636  
                                          l3642 1594                                            l3634 1508  
                                          l3714 1CF2                                            l3706 1CC6  
                                          l2780 1F4C                                            l2908 1D7C  
                                          l1972 211C                                            l3388 1472  
                                          l3556 1C70                                            l3548 1BFA  
                                          l3492 0FA8                                            l3484 0F70  
                                          l3476 0EE4                                            l3468 0E90  
                                          l3580 1A94                                            l3572 1A4C  
                                          l3564 19DC                                            l3660 16D0  
                                          l3652 163E                                            l3636 153A  
                                          l3644 15AA                                            l3708 1CDA  
                                          l2782 1F60                                            l2790 2028  
                                          l2870 20C0                                            l1990 209A  
                                          l1974 211E                                            l3494 0FAC  
                                          l3486 0F7A                                            l3478 0F0E  
                                          l3590 1B14                                            l3582 1AA0  
                                          l3574 1A54                                            l3566 1A22  
                                          l3670 176A                                            l3662 16D8  
                                          l3646 15DC                                            l3654 1644  
                                          l3638 154C                                            l2784 1F6C  
                                          l2792 2034                                            l2872 20C4  
                                          l1992 20AE                                            l1976 2124  
                                          l1968 210E                                            l3496 0FBA  
                                          l3488 0F88                                            l3592 1B16  
                                          l3584 1ADC                                            l3576 1A60  
                                          l3568 1A38                                            l3680 17DA  
                                          l3672 1772                                            l3656 1676  
                                          l3664 16DE                                            l3648 160E  
                                          l2786 1F78                                            l2794 203C  
                                          l2874 20C8                                            l2866 20B8  
                                          l3498 0FE8                                            l3594 1B1A  
                                          l3586 1AE8                                            l3578 1A92  
                                          l3666 1710                                            l3674 1778  
                                          l3658 16A8                                            l3690 1C82  
                                          l3682 1C74                                            l2788 1F84  
                                          l2796 203E                                            l2876 20CC  
                                          l2868 20BC                                            l3596 1B3E  
                                          l3588 1AF6                                            l3676 17AA  
                                          l3668 1742                                            l3692 1C86  
                                          l3684 1C78                                            l2798 2040  
                                          l2878 20D0                                            l1998 20B4  
                                          l3598 1B4E                                            l3678 17D2  
                                          l3694 1C8A                                            l3686 1C7A  
                                          l3696 1C8E                                            l3688 1C7C  
                                          l3698 1C94                                            u1020 2098  
                                          u1021 2094                                            u1130 20AE  
                                          u1131 20AA                                            u3000 0C6E  
                                          u3001 0C6A                                            u3010 0C8E  
                                          u3011 0C8A                                            u3100 119C  
                                          u3020 0CA0                                            u3101 1198  
                                          u3021 0C9C                                            _LATA 000F89  
                                          u3110 11DC                                            u3030 0CBC  
                                          _LATB 000F8A                                            u3111 11D8  
                                          u3031 0CB8                                            _LATC 000F8B  
                                          u3040 1FB0                                            u3200 1368  
                                          u3120 121C                                            u3041 1FAC  
                                          u3201 1364                                            u3121 1218  
                                          u3210 1396                                            u3130 1292  
                                          u3050 1114                                            u3211 1392  
                                          u3131 128E                                            u3051 1110  
                                          u3220 13AC                                            u3140 12B4  
                                          u3060 1126                                            u3300 0D0C  
                                          u3221 13A8                                            u3141 12B0  
                                          u3061 1122                                            u3301 0D08  
                                          u3230 13C0                                            u3150 12DE  
                                          u3070 1136                                            u3310 0D4C  
                                          u3231 13BC                                            u3151 12DA  
                                          u3071 1132                                            u3311 0D48  
                                          u2360 1F42                                            u3240 13DA  
                                          u3160 1302                                            u3080 117A  
                                          u3400 0FE8                                            u3320 0D5E  
                                          u2361 1F3E                                            u3241 13D6  
                                          u3161 12FE                                            u3081 1176  
                                          u3401 0FE4                                            u3321 0D5A  
                                          u3250 1422                                            u3170 1318  
                                          u3090 118C                                            u3410 0FFE  
                                          u3330 0D6E                                            u3251 141E  
                                          u3171 1314                                            u3091 1188  
                                          u3411 0FFA                                            u3331 0D6A  
                                          u3260 1452                                            u3180 1336  
                                          u3500 1C1A                                            u3420 1012  
                                          u3340 0DA4                                            u2700 08B6  
                                          u3261 144E                                            u3181 1332  
                                          u3501 1C16                                            u3421 100E  
                                          u3341 0DA0                                            u2701 08B2  
                                          u3270 1480                                            u3190 1356  
                                          u3510 1C6A                                            u3430 102C  
                                          u3350 0DB4                                            u2710 08C6  
                                          u3271 147C                                            u3191 1352  
                                          u3511 1C66                                            u3431 1028  
                                          u3351 0DB0                                            u2711 08C2  
                                          u3440 1074                                            u3360 0F2E  
                                          u3280 0CEA                                            u2800 0A0C  
                                          u2720 0902                                            u3600 1B4E  
                                          u3520 19CE                                            u3441 1070  
                                          u3281 0CE6                                            u2801 0A08  
                                          u2721 08FE                                            u3601 1B4A  
                                          u3521 19CA                                            u3450 10A2  
                                          u3370 0F88                                            u3290 0CFC  
                                          u2810 0A1C                                            u2730 0910  
                                          u2650 082A                                            u3610 1B5C  
                                          u3530 19DC                                            u3451 109E  
                                          u3371 0F84                                            u3291 0CF8  
                                          u2811 0A18                                            u2731 090C  
                                          u2651 0826                                            u3611 1B58  
                                          u3531 19D8                                            u3460 10DC  
                                          u3380 0FA8                                            u2900 0B7A  
                                          u2820 0A4E                                            u2740 097E  
                                          u2660 083C                                            u3540 1A38  
                                          u3620 18EE                                            u3700 1676  
                                          u3461 10D8                                            u3381 0FA4  
                                          u3365 0F24                                            u2901 0B76  
                                          u2821 0A4A                                            u2741 097A  
                                          u2661 0838                                            u3541 1A34  
                                          u3621 18EA                                            u3701 1672  
                                          u3470 1B9E                                            u3390 0FBA  
                                          u2910 0B96                                            u2830 0A5C  
                                          u2750 0996                                            u2670 084C  
                                          u3550 1A8E                                            u3630 1930  
                                          u3710 16A8                                            u3471 1B9A  
                                          u3391 0FB6                                            u2911 0B92  
                                          u2831 0A58                                            u2751 0990  
                                          u2671 0848                                            u3551 1A8A  
                                          u3631 192C                                            u3711 16A4  
                                          u3480 1BDC                                            u2920 0BA6  
                                          u2840 0A7A                                            u2760 0998  
                                          u2680 088E                                            u3560 1AD8  
                                          u3640 1962                                            u3720 16D0  
                                          u3481 1BD8                                            u2921 0BA2  
                                          u2841 0A76                                            u2681 088A  
                                          u3561 1AD4                                            u3641 195E  
                                          u3721 16CC                                            u3490 1BFA  
                                          u2930 0BB8                                            u2850 0AB2  
                                          u2770 09C0                                            u2690 08A4  
                                          u3570 1AF6                                            u3730 1710  
                                          u3650 153A                                            u3491 1BF6  
                                          u2931 0BB4                                            u2851 0AAE  
                                          u2771 09BC                                            u2691 08A0  
                                          u3571 1AF2                                            u3731 170C  
                                          u3651 1536                                            u2940 0BCE  
                                          u2860 0AF8                                            u2780 09DE  
                                          u3580 1B06                                            u3740 1742  
                                          u3660 1582                                            u2941 0BCA  
                                          u2861 0AF4                                            u2781 09DA  
                                          u3581 1B02                                            u3741 173E  
                                          u3661 157E                                            u2950 0BE4  
                                          u2870 0B2E                                            u2790 09FE  
                                          u3590 1B14                                            u3750 176A  
                                          u3670 15DC                                            u2951 0BE0  
                                          u2871 0B2A                                            u2791 09FA  
                                          u3591 1B10                                            u3751 1766  
                                          u3671 15D8                                            u3807 1C9E  
                                          u2960 0BF8                                            u2880 0B3E  
                                          u3760 17AA                                            u3680 160E  
                                          u2961 0BF4                                            u2881 0B3A  
                                          u3761 17A6                                            u3681 160A  
                                          u3817 1CB6                                            u2970 0C12  
                                          u2890 0B6A                                            u3770 17D2  
                                          u3690 1636                                            u3907 2108  
                                          u2971 0C0E                                            u2891 0B66  
                                          u3771 17CE                                            u3691 1632  
                                          u3827 1CFC                                            u2980 0C4C  
                                          u3780 1CDA                                            u3917 217A  
                                          u2981 0C48                                            u3837 1D12  
                                          u3781 1CD6                                            u2990 0C5E  
                                          u3790 1CF0                                            u3927 1DCC  
                                          u2991 0C5A                                            u3847 159E  
                                          u3791 1CEC                                            u3937 1DD4  
                                          u3857 2120                                            u3867 20EA  
                                          u3877 1ED4                                            u3887 1EEC  
                                          u3897 1F46                                            _TMR1 000FCE  
                                          _WPUB 000F85                         __end_of_CCP2_Initialize 218E  
                                          _main 1C74                                            fsr1l 000FE1  
                                          btemp 005B                                            prodh 000FF4  
                                          prodl 000FF3                                            start 004C  
                               ___fldiv@new_exp 002E                                nrf2401_write@reg 0008  
                    ??_TMR1_SetInterruptHandler 0007                                    ?_flush_TX_RX 0001  
                                  ___param_bank 000000                 __end_of_nrf2401_direccion_TX_RX 1F4C  
                __size_of_OSCILLATOR_Initialize 0020                       get_corriente_AC@corriente 003D  
                 __end_of_OSCILLATOR_Initialize 209A                                 __end_of___fladd 0CD0  
                                         ?_main 0001                                 __end_of___fldiv 1494  
                               __end_of___flmul 10FA                                 __end_of___flsub 1EC0  
                          nrf2401_recibe@valor_ 0007                                           _T1CON 000FCD  
                                         _LATA5 007C4D                                           i2l420 0040  
                                         i2l482 1FF8                                           i2l467 2078  
                                         i2l492 21CE                                           i2l486 1E32  
                                         _TMR1H 000FCF                                           _TMR1L 000FCE  
                                         _TRISA 000F92                                           _TRISB 000F93  
                                         _TRISC 000F94                                           _I_max 0082  
                                         _I_min 007E                                           _I_rms 007A  
                              __end_of_TMR1_ISR 1FFA                                           _valor 008A  
                       __end_of_TMR1_Initialize 2052                                           pclath 000FFA  
                                         tablat 000FF5                                           ttemp5 005C  
                                         ttemp6 005F                                           ttemp7 0063  
                                         status 000FD8                                           wtemp8 005C  
            _EUSART1_DefaultFramingErrorHandler 000000                                 _TMR1_WriteTimer 2052  
                     __size_of_get_corriente_AC 01DA                                 __initialization 1E34  
                    __end_of_EUSART1_Initialize 1F8A                                    __end_of_main 1D28  
                              spi_s_read@cont_s 0006                     ?_INTERRUPT_InterruptManager 0001  
                                        ??_main 0045                                   __activetblptr 000002  
                      _trip_protec_current$2118 00A0                         __end_of_nrF2401_init_RX 1DA4  
                          __end_of_nrf2401_read 20F2                                          _ADCON0 000FC2  
                                        _ADCON1 000FC1                                          _ADCON2 000FC0  
                                        _ACTCON 000FB5                                          _ADRESH 000FC4  
                                        _ADRESL 000FC3                                          _CCPR2H 000F91  
                                        _CCPR2L 000F90                                          _ANSELA 000F5B  
                                        _ANSELB 000F5C                                          _ANSELC 000F5D  
                                        _T1GCON 000FCC                         TMR1_WriteTimer@timerVal 0001  
                          __end_of_direccion_rx 0806                            __end_of_direccion_tx 080F  
                                        i2l3042 0012                                          i2l3044 0020  
                                        i2l3046 002E                                          i2l3048 003C  
                                        i2l2850 2060                                          i2l2860 2074  
                                        i2l2852 2062                                          i2l2862 1DEC  
                                        i2l2854 2066                                          i2l2864 1E18  
                                        i2l2856 206A                                          i2l2848 2052  
                                        i2l2858 2070                                          i2l2970 1FD2  
                                        i2l2972 1FEC                                          i2l2974 1FF0  
                                        i2l2966 1FC4                                          i2l2968 1FC6  
                                        _RCREG1 000FAE                                          _RCSTA1 000FAB  
                                        _OSCCON 000FD3                                          _PLLRDY 007E97  
                                        _SPBRG1 000FAF                                ?_CCP2_Initialize 0001  
                                        _TXREG1 000FAD                                __end_of___xxtofl 1B70  
                                        _TXSTA1 000FAC            __end_of_TMR1_DefaultInterruptHandler 21D0  
         __size_of_TMR1_DefaultInterruptHandler 0002                    _TMR1_DefaultInterruptHandler 21CE  
                                        ___flge 1B70                                 _nrf2401_comando 216C  
                                     ??___fladd 000D                                       ??___fldiv 0025  
                                     ??___flmul 001B                                       ??___flsub 001D  
                     __size_of_nrf2401_haydatos 001E                                          _conteo 0076  
                      ?_EUSART1_SetErrorHandler 0005                                          _offset 0094  
                                        clear_0 1E5A                                          clear_1 1E66  
                                        isa$std 000001                ??_EUSART1_SetOverrunErrorHandler 0007  
               ?_EUSART1_SetOverrunErrorHandler 0005                                    __mediumconst 0000  
                                        tblptrh 000FF7                                          tblptrl 000FF6  
                                        tblptru 000FF8                        ADC_GetConversion@channel 0009  
      TMR1_SetInterruptHandler@InterruptHandler 0005                         __end_of_TMR1_WriteTimer 207A  
                 __size_of_INTERRUPT_Initialize 0004                           __end_of_TMR1_CallBack 1E34  
                                    ___flge@ff1 0005                                      ___flge@ff2 0009  
                              ?_TMR1_Initialize 0001                                    ___xxtofl@arg 000F  
                                  ___xxtofl@exp 000E                               _SYSTEM_Initialize 20B8  
                                  ___xxtofl@val 0005                            nrF2401_init_RX@canal 000D  
                                    __accesstop 0060                         __end_of__initialization 1E6C  
                                  ?_spi_s_write 0001                              ?_SYSTEM_Initialize 0001  
                                 ___rparam_used 000001                              nrf2401_write@valor 0007  
                                __pcstackCOMRAM 0001                                    __pidataBANK0 218E  
                  __size_of_trip_protec_current 034E                             ??_SYSTEM_Initialize 0007  
                                     ?_TMR1_ISR 0001                 fp__TMR1_DefaultInterruptHandler 0000  
                 ?_TMR1_DefaultInterruptHandler 0001                            __size_of_flush_TX_RX 0018  
                              ?_nrF2401_init_RX 0001                       __end_of_SYSTEM_Initialize 20D6  
                                    __pbssBANK0 0060                         __end_of_nrf2401_comando 2180  
                              _get_corriente_AC 17E2                 __end_of_EUSART1_SetErrorHandler 21C2  
                        nrf2401_comando@comando 0007                           __end_of_nrf2401_write 210E  
                                       ?___flge 0005                                      ??_TMR1_ISR 0003  
                                       _CCP2CON 000F97                           __size_of_nrf2401_read 001C  
                       __size_of_ADC_Initialize 0016          __end_of_EUSART1_SetFramingErrorHandler 21B8  
       __size_of_EUSART1_SetFramingErrorHandler 000A                  _EUSART1_SetFramingErrorHandler 21AE  
                                    _get_Status 21C2                                       ?___xxtofl 0005  
                                       _OSCCON2 000FD2                        ?_nrf2401_direccion_TX_RX 0007  
                                       _OSCTUNE 000F9B                                         _SPBRGH1 000FB0  
                 nrf2401_direccion_TX_RX@cont_s 000C                                ?_TMR1_WriteTimer 0001  
                          _ADC_InterruptHandler 008C                                         __Hparam 0000  
                                       __Lparam 0000                                    _nrf2401_read 20D6  
                               __size_of___flge 0104                                         ___fladd 0810  
                                       ___fldiv 10FA                                         ___flmul 0CD0  
                                       ___flsub 1E7A                         __size_of_nrf2401_recibe 001A  
                              _nrf2401_haydatos 209A                                    __psmallconst 0800  
                                    _currentSeg 0072                                    _direccion_rx 0801  
                                  _direccion_tx 080A                                         __pcinit 1E34  
                                       __ramtop 0800                                         __ptext0 1C74  
                                       __ptext1 1494                                         __ptext2 17E2  
                                       __ptext3 19BC                                         __ptext4 1E7A  
                                       __ptext5 0810                                         __ptext6 0CD0  
                                       __ptext7 1B70                                         __ptext8 10FA  
                                       __ptext9 1F8A                  ??_TMR1_DefaultInterruptHandler 0001  
                                     _T1CONbits 000FCD                                spi_s_write@dato_ 0005  
                         _OSCILLATOR_Initialize 207A                                      ??___xxtofl 0009  
             __size_of_TMR1_SetInterruptHandler 000A                              _EUSART1_Initialize 1F4C  
                      ??_PIN_MANAGER_Initialize 0005                       ?_TMR1_SetInterruptHandler 0005  
                             __end_of_intervalo 080A                      __size_of_SYSTEM_Initialize 001E  
                                       _voltaje 0086               nrf2401_direccion_TX_RX@direccion_ 0007  
                          end_of_initialization 1E6C                             ?_EUSART1_Initialize 0001  
                                 __Lmediumconst 0000                     _EUSART1_OverrunErrorHandler 0090  
                              ?_nrf2401_comando 0001                            __size_of_spi_s_write 0048  
                                       postdec1 000FE5                                         postinc0 000FEE  
                          ??_EUSART1_Initialize 0007                                       _PORTBbits 000F81  
                                   ?_get_Status 0001                                      _spi_s_init 2140  
                                    _spi_s_read 1EC0                                     ___fladd@grs 0014  
                                 ___xxtofl@sign 000D                                 nrf2401_read@reg 0007  
                                     _TRISBbits 000F93                                       _TRISCbits 000F94  
                                   ___fldiv@grs 0030                                     ___fldiv@rem 0029  
                           _trip_protec_current 1494                __size_of_EUSART1_SetErrorHandler 000A  
                                   ___flmul@grs 0021                            ?_trip_protec_current 0001  
                      __size_of_CCP2_Initialize 000E                    __end_of_INTERRUPT_Initialize 21CE  
                                __end_of___flge 1C74                               __size_of_TMR1_ISR 0036  
                                _ADC_Initialize 2156                          ?_OSCILLATOR_Initialize 0001  
                           start_initialization 1E34                        __end_of_get_corriente_AC 19BC  
               __size_of_PIN_MANAGER_Initialize 002E                                 spi_s_read@dato_ 0005  
                           __size_of_get_Status 0008                                   ??_flush_TX_RX 0009  
                      __size_of_TMR1_Initialize 002A                           ??_trip_protec_current 0041  
                                      ??___flge 000D                                  _nrf2401_recibe 210E  
                        __end_of_ADC_Initialize 216C                                     __pdataBANK0 0094  
                        __size_of_TMR1_CallBack 0048                                       ___fladd@a 0009  
                                     ___fladd@b 0005                                     ?_spi_s_init 0001  
                                   ?_spi_s_read 0001                                       ___fldiv@a 0021  
                                     ___fldiv@b 001D                           TMR1_ISR@CountCallBack 004B  
                                     ___flmul@a 0017                                       ___flmul@b 0013  
                                   __pbssCOMRAM 0047                                       ___flsub@a 0019  
                                     ___flsub@b 0015                                   __pcstackBANK0 00A0  
                             __size_of___xxtofl 01B4                               get_corriente_AC@i 003B  
                      __end_of_nrf2401_haydatos 20B8                        __size_of_nrF2401_init_RX 007C  
              ??_EUSART1_SetFramingErrorHandler 0007                 ?_EUSART1_SetFramingErrorHandler 0005  
              __size_of_nrf2401_direccion_TX_RX 0046                          __end_of_nrf2401_recibe 2128  
                        _PIN_MANAGER_Initialize 1FFA                                       __pintcode 0008  
              __end_of_TMR1_SetInterruptHandler 21A4                                     _dato_serial 0059  
                                      ?___fladd 0005                                        ?___fldiv 001D  
                                      ?___flmul 0013                                        ?___flsub 0015  
                               ?_ADC_Initialize 0001                    ??_INTERRUPT_InterruptManager 0003  
                           __end_of_flush_TX_RX 2140                                     __smallconst 0800  
                             ??_CCP2_Initialize 0005                 nrf2401_direccion_TX_RX@registro 0009  
                                      _BAUDCON1 000FB8              _EUSART1_DefaultOverrunErrorHandler 000000  
                          _EUSART1_ErrorHandler 008E                         _EUSART1_SetErrorHandler 21B8  
                        __size_of_nrf2401_write 001C                            _INTERRUPT_Initialize 21CA  
                                 _TMR1_CallBack 1DEC                                       _intervalo 0806  
       EUSART1_SetErrorHandler@interruptHandler 0005                                        _LATBbits 000F8A  
                                      _LATCbits 000F8B                                        _PIE1bits 000F9D  
                      __size_of_TMR1_WriteTimer 0028                             __size_of_spi_s_init 0016  
                           __size_of_spi_s_read 0046             __size_of_INTERRUPT_InterruptManager 0044  
                                      i2u240_40 2060                                        i2u240_41 205C  
                                      i2u241_40 1E18                                        i2u241_41 1E14  
                                      i2u242_48 1E1E                                        i2u242_49 1E32  
                                      i2u262_40 0020                                        i2u262_41 001C  
                               ?_nrf2401_recibe 0001                                        i2u263_40 002E  
                                      i2u263_41 002A                                        i2u256_40 1FEC  
                                      i2u264_40 003C                                        i2u256_41 1FE8  
                                      i2u264_41 0038                                        _PIR1bits 000F9E  
                                      _RCONbits 000FD0                                        _TMR1_ISR 1FC4  
                             ??_TMR1_Initialize 0007                                      _ADCON0bits 000FC2  
                                  ??_get_Status 0009                                     _INTCON2bits 000FF1  
                                     copy_data0 1E48                      get_corriente_AC@n_muestras 0036  
                         ?_INTERRUPT_Initialize 0001                                  ?_TMR1_CallBack 0001  
                                 ??_spi_s_write 0005                                        __Hrparam 0000  
                            __end_of_get_Status 21CA                               ??_nrF2401_init_RX 000D  
                                      __Lrparam 0000                               _ADC_GetConversion 1F8A  
                                   _flush_TX_RX 2128                                   _nrf2401_write 20F2  
                       ??_OSCILLATOR_Initialize 0005                        __size_of_nrf2401_comando 0014  
                            ?_ADC_GetConversion 0005                                __size_of___fladd 04C0  
                              __size_of___fldiv 039A                                __size_of___flmul 042A  
                              __size_of___flsub 0046                     __size_of_EUSART1_Initialize 003E  
                      _TMR1_SetInterruptHandler 219A                           _TMR1_InterruptHandler 004D  
                     ??_EUSART1_SetErrorHandler 0007                     _EUSART1_DefaultErrorHandler 000000  
                           ??_ADC_GetConversion 0007                                        ___xxtofl 19BC  
                             ?_get_corriente_AC 0036                                        __ptext10 2140  
                                      __ptext11 210E                                        __ptext20 216C  
                                      __ptext12 209A                                        __ptext21 1DA4  
                                      __ptext13 21C2                                      _T1GCONbits 000FCC  
                                      __ptext30 21AE                                        __ptext22 20B8  
                                      __ptext14 20D6                                        __ptext31 21B8  
                                      __ptext23 2028                                        __ptext15 1EC0  
                                      __ptext32 2180                                        __ptext24 219A  
                                      __ptext16 1D28                                        __ptext33 2156  
                                      __ptext25 1FFA                                        __ptext17 1F06  
                                      __ptext26 207A                                        __ptext18 2128  
                                      __ptext35 1FC4                                        __ptext27 21CA  
                                      __ptext19 20F2                                        __ptext36 2052  
                                      __ptext28 1F4C                                        __ptext37 1DEC  
                                      __ptext29 21A4                                        __ptext38 21CE  
                                      __ptext39 0000                              ??_get_corriente_AC 003A  
                             spi_s_write@cont_s 0006                                   __size_of_main 00B4  
                       _nrf2401_direccion_TX_RX 1F06                                  _previousMillis 006E  
                     __end_of_ADC_GetConversion 1FC4                                        _relacion 0098  
EUSART1_SetOverrunErrorHandler@interruptHandler 0005                                        isa$xinst 000000  
                                ?_nrf2401_write 0007                             __end_of_spi_s_write 1DEC  
                                      int$flags 005B              __end_of_INTERRUPT_InterruptManager 004C  
                    _INTERRUPT_InterruptManager 0008                               ??_TMR1_WriteTimer 0003  
                   _EUSART1_FramingErrorHandler 0092                                    _sensibilidad 009C  
                                  ??_spi_s_init 0005                                    ??_spi_s_read 0005  
                                    _INTCONbits 000FF2                          ??_INTERRUPT_Initialize 0005  
                               ??_TMR1_CallBack 0001                                        intlevel2 0000  
                             ?_nrf2401_haydatos 0001                                    _valor_string 0060  
                       ?_PIN_MANAGER_Initialize 0001                     __end_of_trip_protec_current 17E2  
                            ??_nrf2401_haydatos 0009          __end_of_EUSART1_SetOverrunErrorHandler 21AE  
       __size_of_EUSART1_SetOverrunErrorHandler 000A                  _EUSART1_SetOverrunErrorHandler 21A4  
                                    _RCSTA1bits 000FAB                                ??_ADC_Initialize 0005  
                                 ?_nrf2401_read 0001                              __end_of_spi_s_init 2156  
                            __end_of_spi_s_read 1F06                                 _CCP2_Initialize 2180  
EUSART1_SetFramingErrorHandler@interruptHandler 0005                              _eusart1RxLastError 005A  
                             ??_nrf2401_comando 0007                                   ___fladd@signs 0011  
                     ??_nrf2401_direccion_TX_RX 000A                  __end_of_PIN_MANAGER_Initialize 2028  
                              ??_nrf2401_recibe 0007                                    ___fladd@aexp 0012  
                                  ___fladd@bexp 0013                               nrf2401_read@dato_ 0008  
                                   _spi_s_write 1DA4                      __size_of_ADC_GetConversion 003A  
                               _TMR1_Initialize 2028                                 ??_nrf2401_write 0008  
                                ??_nrf2401_read 0007  
